(dp1
V20
p2
(dp3
V1
(dp4
Vlightning_deals_product_price 
p5
V
sVlightning_deals_product_deal_time
p6
V Starts at 7:30 AM
p7
sVlightning_deals_product_title
p8
V1.50 Ct Oval Natural Red Garnet 925 Sterling Silver Ring
p9
sVlightning_deals_product_percent_off
p10
V
sVlightning_deals_product_img 
p11
Vhttp://ecx.images-amazon.com/images/I/415Q2zKRWSL._AA135_.jpg
p12
sVlightning_deals_dict_refrence_link 
p13
V/gp/product/B00D8GGK8O/ref=gb1h_img_c-2_6602_9a38448f?pf_rd_m=ATVPDKIKX0DER&pf_rd_t=701&pf_rd_s=center-new-2&pf_rd_r=09J4CR1TQVY6EQSV9M4P&pf_rd_i=20&pf_rd_p=1965626602
p14
sVlightning_deals_timestamp_collected
p15
VTue Nov 04 2014 17:04:07 GMT+0530 (IST)
p16
ssV0
(dp17
Vlightning_deals_product_price 
p18
V
sVlightning_deals_product_deal_time
p19
V Starts for you at 8:00 AM
p20
sVlightning_deals_product_title
p21
VStar K Heart 12mm Created Pink Sapphire Pendant
p22
sVlightning_deals_product_percent_off
p23
V
sVlightning_deals_product_img 
p24
Vhttp://ecx.images-amazon.com/images/I/41rruJqGqIL._AA135_.jpg
p25
sVlightning_deals_dict_refrence_link 
p26
V/gp/product/B001K79D14/ref=gb1h_img_c-2_6602_068a5fdd?pf_rd_m=ATVPDKIKX0DER&pf_rd_t=701&pf_rd_s=center-new-2&pf_rd_r=09J4CR1TQVY6EQSV9M4P&pf_rd_i=20&pf_rd_p=1965626602
p27
sVlightning_deals_timestamp_collected
p28
VTue Nov 04 2014 17:04:07 GMT+0530 (IST)
p29
ssV3
(dp30
Vlightning_deals_product_price 
p31
V
sVlightning_deals_product_deal_time
p32
V Starts at 7:30 AM
p33
sVlightning_deals_product_title
p34
VSterling Silver Round Diamond Infinity Bracelet (1/10 Cttw)
p35
sVlightning_deals_product_percent_off
p36
V
sVlightning_deals_product_img 
p37
Vhttp://ecx.images-amazon.com/images/I/41TwgpE4g2L._AA135_.jpg
p38
sVlightning_deals_dict_refrence_link 
p39
V/gp/product/B00E4LSBB6/ref=gb1h_img_c-2_6602_a4fa62bf?pf_rd_m=ATVPDKIKX0DER&pf_rd_t=701&pf_rd_s=center-new-2&pf_rd_r=09J4CR1TQVY6EQSV9M4P&pf_rd_i=20&pf_rd_p=1965626602
p40
sVlightning_deals_timestamp_collected
p41
VTue Nov 04 2014 17:04:07 GMT+0530 (IST)
p42
ssV2
(dp43
Vlightning_deals_product_price 
p44
V
sVlightning_deals_product_deal_time
p45
V Starts at 7:30 AM
p46
sVlightning_deals_product_title
p47
VLoving Family Sterling Parent Child Pendant, 2 Children
p48
sVlightning_deals_product_percent_off
p49
V
sVlightning_deals_product_img 
p50
Vhttp://ecx.images-amazon.com/images/I/311IO5AYVtL._AA135_.jpg
p51
sVlightning_deals_dict_refrence_link 
p52
V/gp/product/B00GOZUIZC/ref=gb1h_img_c-2_6602_eb86ccaa?pf_rd_m=ATVPDKIKX0DER&pf_rd_t=701&pf_rd_s=center-new-2&pf_rd_r=09J4CR1TQVY6EQSV9M4P&pf_rd_i=20&pf_rd_p=1965626602
p53
sVlightning_deals_timestamp_collected
p54
VTue Nov 04 2014 17:04:07 GMT+0530 (IST)
p55
ssV5
(dp56
Vlightning_deals_product_price 
p57
V
sVlightning_deals_product_deal_time
p58
V Starts at 7:30 AM
p59
sVlightning_deals_product_title
p60
VTungsten Men's Bracelet - 8.5'' with White Inlay
p61
sVlightning_deals_product_percent_off
p62
V
sVlightning_deals_product_img 
p63
Vhttp://ecx.images-amazon.com/images/I/411NNrdTRlL._AA135_.jpg
p64
sVlightning_deals_dict_refrence_link 
p65
V/gp/product/B002BVCSCE/ref=gb1h_img_c-2_6602_4cfc01b1?pf_rd_m=ATVPDKIKX0DER&pf_rd_t=701&pf_rd_s=center-new-2&pf_rd_r=09J4CR1TQVY6EQSV9M4P&pf_rd_i=20&pf_rd_p=1965626602
p66
sVlightning_deals_timestamp_collected
p67
VTue Nov 04 2014 17:04:07 GMT+0530 (IST)
p68
ssV4
(dp69
Vlightning_deals_product_price 
p70
V
sVlightning_deals_product_deal_time
p71
V Starts at 7:30 AM
p72
sVlightning_deals_product_title
p73
VMens Black Stainless Steel Four Element Magnetic Bracelet
p74
sVlightning_deals_product_percent_off
p75
V
sVlightning_deals_product_img 
p76
Vhttp://ecx.images-amazon.com/images/I/41xvJITtLNL._AA135_.jpg
p77
sVlightning_deals_dict_refrence_link 
p78
V/gp/product/B00OFAO7VE/ref=gb1h_img_c-2_6602_40e1e131?pf_rd_m=ATVPDKIKX0DER&pf_rd_t=701&pf_rd_s=center-new-2&pf_rd_r=09J4CR1TQVY6EQSV9M4P&pf_rd_i=20&pf_rd_p=1965626602
p79
sVlightning_deals_timestamp_collected
p80
VTue Nov 04 2014 17:04:07 GMT+0530 (IST)
p81
ssV6
(dp82
Vlightning_deals_product_price 
p83
V
sVlightning_deals_product_deal_time
p84
V Starts at 7:30 AM
p85
sVlightning_deals_product_title
p86
VSterling Silver 6-7mm White Freshwater Pearl Jewelry Sets
p87
sVlightning_deals_product_percent_off
p88
V
sVlightning_deals_product_img 
p89
Vhttp://ecx.images-amazon.com/images/I/417TVHbgwkL._AA135_.jpg
p90
sVlightning_deals_dict_refrence_link 
p91
V/gp/product/B007N7JY96/ref=gb1h_img_c-2_6602_add89811?pf_rd_m=ATVPDKIKX0DER&pf_rd_t=701&pf_rd_s=center-new-2&pf_rd_r=09J4CR1TQVY6EQSV9M4P&pf_rd_i=20&pf_rd_p=1965626602
p92
sVlightning_deals_timestamp_collected
p93
VTue Nov 04 2014 17:04:07 GMT+0530 (IST)
p94
sssV21
p95
(dp96
V1
(dp97
Vlightning_deals_product_price 
p98
V
sVlightning_deals_product_deal_time
p99
V Starts at 7:30 AM
p100
sVlightning_deals_product_title
p101
V3/4 ct Round Diamond Stud Earrings in 14k White Gold
p102
sVlightning_deals_product_percent_off
p103
V
sVlightning_deals_product_img 
p104
Vhttp://ecx.images-amazon.com/images/I/41gV-vfJJdL._AA135_.jpg
p105
sVlightning_deals_dict_refrence_link 
p106
V/gp/product/B00I0BGKJ6/ref=gb1h_img_c-2_6602_749eb17c?pf_rd_m=ATVPDKIKX0DER&pf_rd_t=701&pf_rd_s=center-new-2&pf_rd_r=09J4CR1TQVY6EQSV9M4P&pf_rd_i=20&pf_rd_p=1965626602
p107
sVlightning_deals_timestamp_collected
p108
VTue Nov 04 2014 17:04:07 GMT+0530 (IST)
p109
ssV0
(dp110
Vlightning_deals_product_price 
p111
V
sVlightning_deals_product_deal_time
p112
V Starts at 7:30 AM
p113
sVlightning_deals_product_title
p114
V25.00 Ct Natural Checkerboard Round Amethyst 925 Silver
p115
sVlightning_deals_product_percent_off
p116
V
sVlightning_deals_product_img 
p117
Vhttp://ecx.images-amazon.com/images/I/411Y9sqYloL._AA135_.jpg
p118
sVlightning_deals_dict_refrence_link 
p119
V/gp/product/B00EDUOEX2/ref=gb1h_img_c-2_6602_423c4069?pf_rd_m=ATVPDKIKX0DER&pf_rd_t=701&pf_rd_s=center-new-2&pf_rd_r=09J4CR1TQVY6EQSV9M4P&pf_rd_i=20&pf_rd_p=1965626602
p120
sVlightning_deals_timestamp_collected
p121
VTue Nov 04 2014 17:04:07 GMT+0530 (IST)
p122
ssV3
(dp123
Vlightning_deals_product_price 
p124
V
sVlightning_deals_product_deal_time
p125
V Starts at 8:00 AM
p126
sVlightning_deals_product_title
p127
VHawke & Co Quilted Shirt Jacket
p128
sVlightning_deals_product_percent_off
p129
V
sVlightning_deals_product_img 
p130
Vhttp://ecx.images-amazon.com/images/I/41hdsFU4%2BrL._AA135_.jpg
p131
sVlightning_deals_dict_refrence_link 
p132
V/gp/product/B00MGLU812/ref=gb1h_img_c-2_6602_200f27e2?pf_rd_m=ATVPDKIKX0DER&pf_rd_t=701&pf_rd_s=center-new-2&pf_rd_r=09J4CR1TQVY6EQSV9M4P&pf_rd_i=20&pf_rd_p=1965626602
p133
sVlightning_deals_timestamp_collected
p134
VTue Nov 04 2014 17:04:07 GMT+0530 (IST)
p135
ssV2
(dp136
Vlightning_deals_product_price 
p137
V
sVlightning_deals_product_deal_time
p138
V Starts at 7:30 AM
p139
sVlightning_deals_product_title
p140
V1 CT Black Diamond Necklace in Sterling Silver
p141
sVlightning_deals_product_percent_off
p142
V
sVlightning_deals_product_img 
p143
Vhttp://ecx.images-amazon.com/images/I/41z84krsHBL._AA135_.jpg
p144
sVlightning_deals_dict_refrence_link 
p145
V/gp/product/B00N23WS0W/ref=gb1h_img_c-2_6602_a32ca0c4?pf_rd_m=ATVPDKIKX0DER&pf_rd_t=701&pf_rd_s=center-new-2&pf_rd_r=09J4CR1TQVY6EQSV9M4P&pf_rd_i=20&pf_rd_p=1965626602
p146
sVlightning_deals_timestamp_collected
p147
VTue Nov 04 2014 17:04:07 GMT+0530 (IST)
p148
ssV5
(dp149
Vlightning_deals_product_price 
p150
V
sVlightning_deals_product_deal_time
p151
V Starts at 8:00 AM
p152
sVlightning_deals_product_title
p153
VNY Collection Women's Sleeveless Body Con Dress
p154
sVlightning_deals_product_percent_off
p155
V
sVlightning_deals_product_img 
p156
Vhttp://ecx.images-amazon.com/images/I/31E2ozCpXaL._AA135_.jpg
p157
sVlightning_deals_dict_refrence_link 
p158
V/gp/product/B00G4YOM8C/ref=gb1h_img_c-2_6602_b51bc9be?pf_rd_m=ATVPDKIKX0DER&pf_rd_t=701&pf_rd_s=center-new-2&pf_rd_r=09J4CR1TQVY6EQSV9M4P&pf_rd_i=20&pf_rd_p=1965626602
p159
sVlightning_deals_timestamp_collected
p160
VTue Nov 04 2014 17:04:07 GMT+0530 (IST)
p161
ssV4
(dp162
Vlightning_deals_product_price 
p163
V
sVlightning_deals_product_deal_time
p164
V Starts at 8:00 AM
p165
sVlightning_deals_product_title
p166
VDickies Phoenix Allover Stripe Crew
p167
sVlightning_deals_product_percent_off
p168
V
sVlightning_deals_product_img 
p169
Vhttp://ecx.images-amazon.com/images/I/51aS1ZvtimL._AA135_.jpg
p170
sVlightning_deals_dict_refrence_link 
p171
V/gp/product/B00NPR7TRM/ref=gb1h_img_c-2_6602_f18ed74c?pf_rd_m=ATVPDKIKX0DER&pf_rd_t=701&pf_rd_s=center-new-2&pf_rd_r=09J4CR1TQVY6EQSV9M4P&pf_rd_i=20&pf_rd_p=1965626602
p172
sVlightning_deals_timestamp_collected
p173
VTue Nov 04 2014 17:04:07 GMT+0530 (IST)
p174
ssV6
(dp175
Vlightning_deals_product_price 
p176
V
sVlightning_deals_product_deal_time
p177
V Starts for you at 10:00 AM
p178
sVlightning_deals_product_title
p179
VDayMark 18" Disposable Pastry Bag with Dispenser (Roll of 100)
p180
sVlightning_deals_product_percent_off
p181
V
sVlightning_deals_product_img 
p182
Vhttp://ecx.images-amazon.com/images/I/612A-ujz1RL._SL1500__AA135_.jpg
p183
sVlightning_deals_dict_refrence_link 
p184
V/gp/product/B009YM776U/ref=gb1h_img_c-2_6602_025b0039?pf_rd_m=ATVPDKIKX0DER&pf_rd_t=701&pf_rd_s=center-new-2&pf_rd_r=09J4CR1TQVY6EQSV9M4P&pf_rd_i=20&pf_rd_p=1965626602
p185
sVlightning_deals_timestamp_collected
p186
VTue Nov 04 2014 17:04:07 GMT+0530 (IST)
p187
sssV22
p188
(dp189
V1
(dp190
Vlightning_deals_product_price 
p191
V
sVlightning_deals_product_deal_time
p192
V Starts at 2:00 PM
p193
sVlightning_deals_product_title
p194
VAmerican Icon Quarter-Zip Sweater
p195
sVlightning_deals_product_percent_off
p196
V
sVlightning_deals_product_img 
p197
Vhttp://ecx.images-amazon.com/images/I/41P%2BHmm7goL._AA135_.jpg
p198
sVlightning_deals_dict_refrence_link 
p199
V/gp/product/B00LNDISXO/ref=gb1h_img_c-2_6602_139297a7?pf_rd_m=ATVPDKIKX0DER&pf_rd_t=701&pf_rd_s=center-new-2&pf_rd_r=09J4CR1TQVY6EQSV9M4P&pf_rd_i=20&pf_rd_p=1965626602
p200
sVlightning_deals_timestamp_collected
p201
VTue Nov 04 2014 17:04:08 GMT+0530 (IST)
p202
ssV0
(dp203
Vlightning_deals_product_price 
p204
V
sVlightning_deals_product_deal_time
p205
V Starts at 1:30 PM
p206
sVlightning_deals_product_title
p207
VLucky Brand Women's Sofia Skinny Jean In Dark Faye
p208
sVlightning_deals_product_percent_off
p209
V
sVlightning_deals_product_img 
p210
Vhttp://ecx.images-amazon.com/images/I/41ZU4HPkd2L._AA135_.jpg
p211
sVlightning_deals_dict_refrence_link 
p212
V/gp/product/B00KW6156U/ref=gb1h_img_c-2_6602_7156b177?pf_rd_m=ATVPDKIKX0DER&pf_rd_t=701&pf_rd_s=center-new-2&pf_rd_r=09J4CR1TQVY6EQSV9M4P&pf_rd_i=20&pf_rd_p=1965626602
p213
sVlightning_deals_timestamp_collected
p214
VTue Nov 04 2014 17:04:08 GMT+0530 (IST)
p215
ssV3
(dp216
Vlightning_deals_product_deal_time
p217
V
sVlightning_deals_product_percent_off
p218
V
sVlightning_deals_timestamp_collected
p219
VTue Nov 04 2014 17:04:08 GMT+0530 (IST)
p220
sVlightning_deals_product_price 
p221
V
ssV2
(dp222
Vlightning_deals_product_price 
p223
V
sVlightning_deals_product_deal_time
p224
V Starts at 2:00 PM
p225
sVlightning_deals_product_title
p226
VBill Adler Belts Skived Edge Belt
p227
sVlightning_deals_product_percent_off
p228
V
sVlightning_deals_product_img 
p229
Vhttp://ecx.images-amazon.com/images/I/41vNlo5db-L._AA135_.jpg
p230
sVlightning_deals_dict_refrence_link 
p231
V/gp/product/B00JBA9ASS/ref=gb1h_img_c-2_6602_d90bb82b?pf_rd_m=ATVPDKIKX0DER&pf_rd_t=701&pf_rd_s=center-new-2&pf_rd_r=09J4CR1TQVY6EQSV9M4P&pf_rd_i=20&pf_rd_p=1965626602
p232
sVlightning_deals_timestamp_collected
p233
VTue Nov 04 2014 17:04:08 GMT+0530 (IST)
p234
ssV5
(dp235
Vlightning_deals_product_deal_time
p236
V
sVlightning_deals_product_percent_off
p237
V
sVlightning_deals_timestamp_collected
p238
VTue Nov 04 2014 17:04:08 GMT+0530 (IST)
p239
sVlightning_deals_product_price 
p240
V
ssV4
(dp241
Vlightning_deals_product_deal_time
p242
V
sVlightning_deals_product_percent_off
p243
V
sVlightning_deals_timestamp_collected
p244
VTue Nov 04 2014 17:04:08 GMT+0530 (IST)
p245
sVlightning_deals_product_price 
p246
V
ssV6
(dp247
Vlightning_deals_product_deal_time
p248
V
sVlightning_deals_product_percent_off
p249
V
sVlightning_deals_timestamp_collected
p250
VTue Nov 04 2014 17:04:08 GMT+0530 (IST)
p251
sVlightning_deals_product_price 
p252
V
sssV1
(dp253
V1
(dp254
Vlightning_deals_product_price 
p255
V$19.99
p256
sVlightning_deals_product_deal_time
p257
V Ends in 02h 56m 07s 
p258
sVlightning_deals_product_title
p259
VUp to 60% Off Select LED Light Bulbs
p260
sVlightning_deals_product_percent_off
p261
V (56% off)\u000a
p262
sVlightning_deals_product_img 
p263
Vhttp://ecx.images-amazon.com/images/I/41aAcg98RvL._AA135_.jpg
p264
sVlightning_deals_dict_refrence_link 
p265
Vhttp://www.amazon.com/dp/B00K7UWKQ0/ref=gb1h_img_c-2_6602_d56865cb?smid=ATVPDKIKX0DER&pf_rd_m=ATVPDKIKX0DER&pf_rd_t=701&pf_rd_s=center-new-2&pf_rd_r=09J4CR1TQVY6EQSV9M4P&pf_rd_i=20&pf_rd_p=1965626602
p266
sVlightning_deals_timestamp_collected
p267
VTue Nov 04 2014 17:03:58 GMT+0530 (IST)
p268
ssV0
(dp269
Vlightning_deals_product_price 
p270
V$29.99 - $64.99
p271
sVlightning_deals_product_deal_time
p272
V Ends in 20h 24m 59s 
p273
sVlightning_deals_product_title
p274
VUp to 60% Off Select LED Light Bulbs
p275
sVlightning_deals_product_percent_off
p276
V
sVlightning_deals_product_img 
p277
Vhttp://ecx.images-amazon.com/images/I/41Lxwz%2B5c6L._AA135_.jpg
p278
sVlightning_deals_dict_refrence_link 
p279
Vhttps://www.amazon.com/s/browse/ref=gb1h_img_c-2_6602_82acbf97?ie=UTF8&node=8405011011&smid=A1KWJVS57NX03I&pf_rd_m=ATVPDKIKX0DER&pf_rd_t=701&pf_rd_s=center-new-2&pf_rd_r=09J4CR1TQVY6EQSV9M4P&pf_rd_i=20&pf_rd_p=1965626602
p280
sVlightning_deals_timestamp_collected
p281
VTue Nov 04 2014 17:03:58 GMT+0530 (IST)
p282
ssV3
(dp283
Vlightning_deals_product_price 
p284
V$79.99
p285
sVlightning_deals_product_deal_time
p286
V Ends in 02h 56m 07s 
p287
sVlightning_deals_product_title
p288
VUp to 60% Off Select LED Light Bulbs
p289
sVlightning_deals_product_percent_off
p290
V (73% off)\u000a
p291
sVlightning_deals_product_img 
p292
Vhttp://ecx.images-amazon.com/images/I/41AIXEqN9bL._AA135_.jpg
p293
sVlightning_deals_dict_refrence_link 
p294
Vhttp://www.amazon.com/dp/B00NHTUNVW/ref=gb1h_img_c-2_6602_8059f91c?smid=ATVPDKIKX0DER&pf_rd_m=ATVPDKIKX0DER&pf_rd_t=701&pf_rd_s=center-new-2&pf_rd_r=09J4CR1TQVY6EQSV9M4P&pf_rd_i=20&pf_rd_p=1965626602
p295
sVlightning_deals_timestamp_collected
p296
VTue Nov 04 2014 17:03:58 GMT+0530 (IST)
p297
ssV2
(dp298
Vlightning_deals_product_price 
p299
V$24.99
p300
sVlightning_deals_product_deal_time
p301
V Ends in 02h 56m 07s 
p302
sVlightning_deals_product_title
p303
VUp to 60% Off Select LED Light Bulbs
p304
sVlightning_deals_product_percent_off
p305
V (58% off)\u000a
p306
sVlightning_deals_product_img 
p307
Vhttp://ecx.images-amazon.com/images/I/41Q1XXMxnpL._AA135_.jpg
p308
sVlightning_deals_dict_refrence_link 
p309
Vhttp://www.amazon.com/dp/B00KQFBP4E/ref=gb1h_img_c-2_6602_10477647?smid=ATVPDKIKX0DER&pf_rd_m=ATVPDKIKX0DER&pf_rd_t=701&pf_rd_s=center-new-2&pf_rd_r=09J4CR1TQVY6EQSV9M4P&pf_rd_i=20&pf_rd_p=1965626602
p310
sVlightning_deals_timestamp_collected
p311
VTue Nov 04 2014 17:03:58 GMT+0530 (IST)
p312
ssV5
(dp313
Vlightning_deals_product_price 
p314
V
sVlightning_deals_product_deal_time
p315
V Starts for you at 7:30 PM
p316
sVlightning_deals_product_title
p317
VUp to 60% Off Select LED Light Bulbs
p318
sVlightning_deals_product_percent_off
p319
V
sVlightning_deals_product_img 
p320
Vhttp://ecx.images-amazon.com/images/I/516HOj17J2L._AA135_.jpg
p321
sVlightning_deals_dict_refrence_link 
p322
V/gp/product/B00EOGPGD2/ref=gb1h_img_c-2_6602_01301cd5?pf_rd_m=ATVPDKIKX0DER&pf_rd_t=701&pf_rd_s=center-new-2&pf_rd_r=09J4CR1TQVY6EQSV9M4P&pf_rd_i=20&pf_rd_p=1965626602
p323
sVlightning_deals_timestamp_collected
p324
VTue Nov 04 2014 17:03:58 GMT+0530 (IST)
p325
ssV4
(dp326
Vlightning_deals_product_price 
p327
V
sVlightning_deals_product_deal_time
p328
V Starts for you in  00h 55m 59s 
p329
sVlightning_deals_product_title
p330
VUp to 60% Off Select LED Light Bulbs
p331
sVlightning_deals_product_percent_off
p332
V
sVlightning_deals_product_img 
p333
Vhttp://ecx.images-amazon.com/images/I/41TC7MDLk%2BL._AA135_.jpg
p334
sVlightning_deals_dict_refrence_link 
p335
V/gp/product/B005AYYDCM/ref=gb1h_img_c-2_6602_776b5bb6?pf_rd_m=ATVPDKIKX0DER&pf_rd_t=701&pf_rd_s=center-new-2&pf_rd_r=09J4CR1TQVY6EQSV9M4P&pf_rd_i=20&pf_rd_p=1965626602
p336
sVlightning_deals_timestamp_collected
p337
VTue Nov 04 2014 17:03:58 GMT+0530 (IST)
p338
ssV6
(dp339
Vlightning_deals_product_price 
p340
V
sVlightning_deals_product_deal_time
p341
V Starts for you at 7:30 PM
p342
sVlightning_deals_product_title
p343
VUp to 60% Off Select LED Light Bulbs
p344
sVlightning_deals_product_percent_off
p345
V
sVlightning_deals_product_img 
p346
Vhttp://ecx.images-amazon.com/images/I/51DJwlxRN8L._AA135_.jpg
p347
sVlightning_deals_dict_refrence_link 
p348
V/gp/product/B00H969VOO/ref=gb1h_img_c-2_6602_1afeed80?pf_rd_m=ATVPDKIKX0DER&pf_rd_t=701&pf_rd_s=center-new-2&pf_rd_r=09J4CR1TQVY6EQSV9M4P&pf_rd_i=20&pf_rd_p=1965626602
p349
sVlightning_deals_timestamp_collected
p350
VTue Nov 04 2014 17:03:58 GMT+0530 (IST)
p351
sssV3
(dp352
V1
(dp353
Vlightning_deals_product_price 
p354
V
sVlightning_deals_product_deal_time
p355
V Starts for you at 8:00 PM
p356
sVlightning_deals_product_title
p357
VTake an Additional 20% Off Belfry Hats Men's Be-Bop Classic Wool Porkpie Hat 
p358
sVlightning_deals_product_percent_off
p359
V
sVlightning_deals_product_img 
p360
Vhttp://ecx.images-amazon.com/images/I/41mhZJ2EHxL._AA135_.jpg
p361
sVlightning_deals_dict_refrence_link 
p362
V/gp/product/B005ZWSZA0/ref=gb1h_img_c-2_6602_bb979e8a?pf_rd_m=ATVPDKIKX0DER&pf_rd_t=701&pf_rd_s=center-new-2&pf_rd_r=09J4CR1TQVY6EQSV9M4P&pf_rd_i=20&pf_rd_p=1965626602
p363
sVlightning_deals_timestamp_collected
p364
VTue Nov 04 2014 17:03:59 GMT+0530 (IST)
p365
ssV0
(dp366
Vlightning_deals_product_price 
p367
V
sVlightning_deals_product_deal_time
p368
V Starts for you at 8:00 PM
p369
sVlightning_deals_product_title
p370
VGund Snuffles Panda 10"
p371
sVlightning_deals_product_percent_off
p372
V
sVlightning_deals_product_img 
p373
Vhttp://ecx.images-amazon.com/images/I/519z0u0ekEL._AA135_.jpg
p374
sVlightning_deals_dict_refrence_link 
p375
V/gp/product/B00HQT1LOC/ref=gb1h_img_c-2_6602_f0c3db7b?pf_rd_m=ATVPDKIKX0DER&pf_rd_t=701&pf_rd_s=center-new-2&pf_rd_r=09J4CR1TQVY6EQSV9M4P&pf_rd_i=20&pf_rd_p=1965626602
p376
sVlightning_deals_timestamp_collected
p377
VTue Nov 04 2014 17:03:59 GMT+0530 (IST)
p378
ssV3
(dp379
Vlightning_deals_product_price 
p380
V
sVlightning_deals_product_deal_time
p381
V Starts at 7:30 PM
p382
sVlightning_deals_product_title
p383
V14K Gold 8.5-9.0mm White Akoya Cultured Pearl Stud Earrings
p384
sVlightning_deals_product_percent_off
p385
V
sVlightning_deals_product_img 
p386
Vhttp://ecx.images-amazon.com/images/I/31yja%2BTShPL._AA135_.jpg
p387
sVlightning_deals_dict_refrence_link 
p388
V/gp/product/B00EFE4B70/ref=gb1h_img_c-2_6602_f7b95747?pf_rd_m=ATVPDKIKX0DER&pf_rd_t=701&pf_rd_s=center-new-2&pf_rd_r=09J4CR1TQVY6EQSV9M4P&pf_rd_i=20&pf_rd_p=1965626602
p389
sVlightning_deals_timestamp_collected
p390
VTue Nov 04 2014 17:03:59 GMT+0530 (IST)
p391
ssV2
(dp392
Vlightning_deals_product_price 
p393
V
sVlightning_deals_product_deal_time
p394
V Starts at 7:30 PM
p395
sVlightning_deals_product_title
p396
VPack of 4 Avery Economy View Binders with 1.5-Inch Slant Rings, Black
p397
sVlightning_deals_product_percent_off
p398
V
sVlightning_deals_product_img 
p399
Vhttp://ecx.images-amazon.com/images/I/81RyyKe6XYL._SL1500__AA135_.jpg
p400
sVlightning_deals_dict_refrence_link 
p401
V/gp/product/B00IX1CEH0/ref=gb1h_img_c-2_6602_c7e965c4?pf_rd_m=ATVPDKIKX0DER&pf_rd_t=701&pf_rd_s=center-new-2&pf_rd_r=09J4CR1TQVY6EQSV9M4P&pf_rd_i=20&pf_rd_p=1965626602
p402
sVlightning_deals_timestamp_collected
p403
VTue Nov 04 2014 17:03:59 GMT+0530 (IST)
p404
ssV5
(dp405
Vlightning_deals_product_price 
p406
V
sVlightning_deals_product_deal_time
p407
V Starts at 7:30 PM
p408
sVlightning_deals_product_title
p409
VTake an Additional 33% Luciano Natazzi Men's Fitted Black Cashmere Wool Overcoat
p410
sVlightning_deals_product_percent_off
p411
V
sVlightning_deals_product_img 
p412
Vhttp://ecx.images-amazon.com/images/I/41MKrXM0RBL._AA135_.jpg
p413
sVlightning_deals_dict_refrence_link 
p414
V/gp/product/B00AXE1LGU/ref=gb1h_img_c-2_6602_ef720505?pf_rd_m=ATVPDKIKX0DER&pf_rd_t=701&pf_rd_s=center-new-2&pf_rd_r=09J4CR1TQVY6EQSV9M4P&pf_rd_i=20&pf_rd_p=1965626602
p415
sVlightning_deals_timestamp_collected
p416
VTue Nov 04 2014 17:03:59 GMT+0530 (IST)
p417
ssV4
(dp418
Vlightning_deals_product_price 
p419
V
sVlightning_deals_product_deal_time
p420
V Starts at 7:30 PM
p421
sVlightning_deals_product_title
p422
V0.55 CT Black Diamond Bracelet in Sterling Silver
p423
sVlightning_deals_product_percent_off
p424
V
sVlightning_deals_product_img 
p425
Vhttp://ecx.images-amazon.com/images/I/31L4AO90INL._AA135_.jpg
p426
sVlightning_deals_dict_refrence_link 
p427
V/gp/product/B00MYIDF8A/ref=gb1h_img_c-2_6602_05a512f3?pf_rd_m=ATVPDKIKX0DER&pf_rd_t=701&pf_rd_s=center-new-2&pf_rd_r=09J4CR1TQVY6EQSV9M4P&pf_rd_i=20&pf_rd_p=1965626602
p428
sVlightning_deals_timestamp_collected
p429
VTue Nov 04 2014 17:03:59 GMT+0530 (IST)
p430
ssV6
(dp431
Vlightning_deals_product_price 
p432
V
sVlightning_deals_product_deal_time
p433
V Starts at 7:30 PM
p434
sVlightning_deals_product_title
p435
V1/4 ct Heart Diamond Pendant in 10k White Gold (HI, I1-I2)
p436
sVlightning_deals_product_percent_off
p437
V
sVlightning_deals_product_img 
p438
Vhttp://ecx.images-amazon.com/images/I/41rLNjpQPAL._AA135_.jpg
p439
sVlightning_deals_dict_refrence_link 
p440
V/gp/product/B000X9TGMG/ref=gb1h_img_c-2_6602_4b2774da?pf_rd_m=ATVPDKIKX0DER&pf_rd_t=701&pf_rd_s=center-new-2&pf_rd_r=09J4CR1TQVY6EQSV9M4P&pf_rd_i=20&pf_rd_p=1965626602
p441
sVlightning_deals_timestamp_collected
p442
VTue Nov 04 2014 17:03:59 GMT+0530 (IST)
p443
sssV2
(dp444
V1
(dp445
Vlightning_deals_product_price 
p446
V
sVlightning_deals_product_deal_time
p447
V Starts for you at 8:00 PM
p448
sVlightning_deals_product_title
p449
VM-Audio SP-2 Sustain Pedal with Piano Style Action for Keyboards
p450
sVlightning_deals_product_percent_off
p451
V
sVlightning_deals_product_img 
p452
Vhttp://ecx.images-amazon.com/images/I/31Xpu-0%2BGWL._AA135_.jpg
p453
sVlightning_deals_dict_refrence_link 
p454
V/gp/product/B00063678K/ref=gb1h_img_c-2_6602_c9d75a6b?pf_rd_m=ATVPDKIKX0DER&pf_rd_t=701&pf_rd_s=center-new-2&pf_rd_r=09J4CR1TQVY6EQSV9M4P&pf_rd_i=20&pf_rd_p=1965626602
p455
sVlightning_deals_timestamp_collected
p456
VTue Nov 04 2014 17:03:59 GMT+0530 (IST)
p457
ssV0
(dp458
Vlightning_deals_product_price 
p459
V
sVlightning_deals_product_deal_time
p460
V Starts at 7:20 PM
p461
sVlightning_deals_product_title
p462
VNaneu 115f Grn Sahara Expandable Shoulder Camera Bag with 15.4-Inch Laptop Sleeve (Green)
p463
sVlightning_deals_product_percent_off
p464
V
sVlightning_deals_product_img 
p465
Vhttp://ecx.images-amazon.com/images/I/41HhXjFmDrL._AA135_.jpg
p466
sVlightning_deals_dict_refrence_link 
p467
V/gp/product/B001NIWQUU/ref=gb1h_img_c-2_6602_e45373c3?pf_rd_m=ATVPDKIKX0DER&pf_rd_t=701&pf_rd_s=center-new-2&pf_rd_r=09J4CR1TQVY6EQSV9M4P&pf_rd_i=20&pf_rd_p=1965626602
p468
sVlightning_deals_timestamp_collected
p469
VTue Nov 04 2014 17:03:59 GMT+0530 (IST)
p470
ssV3
(dp471
Vlightning_deals_product_price 
p472
V
sVlightning_deals_product_deal_time
p473
V Starts at 7:30 PM
p474
sVlightning_deals_product_title
p475
VAqua Blue Crystal Pendant with Swarovski Elements
p476
sVlightning_deals_product_percent_off
p477
V
sVlightning_deals_product_img 
p478
Vhttp://ecx.images-amazon.com/images/I/41VaG5ejrHL._AA135_.jpg
p479
sVlightning_deals_dict_refrence_link 
p480
V/gp/product/B00L872QEW/ref=gb1h_img_c-2_6602_f54ce3da?pf_rd_m=ATVPDKIKX0DER&pf_rd_t=701&pf_rd_s=center-new-2&pf_rd_r=09J4CR1TQVY6EQSV9M4P&pf_rd_i=20&pf_rd_p=1965626602
p481
sVlightning_deals_timestamp_collected
p482
VTue Nov 04 2014 17:03:59 GMT+0530 (IST)
p483
ssV2
(dp484
Vlightning_deals_product_price 
p485
V
sVlightning_deals_product_deal_time
p486
V Starts at 7:30 PM
p487
sVlightning_deals_product_title
p488
V14k White Gold Petite Sapphire Screw-back Earrings
p489
sVlightning_deals_product_percent_off
p490
V
sVlightning_deals_product_img 
p491
Vhttp://ecx.images-amazon.com/images/I/31OXFtcwO4L._AA135_.jpg
p492
sVlightning_deals_dict_refrence_link 
p493
V/gp/product/B004EYJLE4/ref=gb1h_img_c-2_6602_9b8b7249?pf_rd_m=ATVPDKIKX0DER&pf_rd_t=701&pf_rd_s=center-new-2&pf_rd_r=09J4CR1TQVY6EQSV9M4P&pf_rd_i=20&pf_rd_p=1965626602
p494
sVlightning_deals_timestamp_collected
p495
VTue Nov 04 2014 17:03:59 GMT+0530 (IST)
p496
ssV5
(dp497
Vlightning_deals_product_price 
p498
V
sVlightning_deals_product_deal_time
p499
V Starts for you at 8:00 PM
p500
sVlightning_deals_product_title
p501
VTake an Additional 29% Off Escapism Men's Printed Pattern Hoodie
p502
sVlightning_deals_product_percent_off
p503
V
sVlightning_deals_product_img 
p504
Vhttp://ecx.images-amazon.com/images/I/41HPaAIpeVL._AA135_.jpg
p505
sVlightning_deals_dict_refrence_link 
p506
V/gp/product/B00I3NCYVE/ref=gb1h_img_c-2_6602_6306908f?pf_rd_m=ATVPDKIKX0DER&pf_rd_t=701&pf_rd_s=center-new-2&pf_rd_r=09J4CR1TQVY6EQSV9M4P&pf_rd_i=20&pf_rd_p=1965626602
p507
sVlightning_deals_timestamp_collected
p508
VTue Nov 04 2014 17:03:59 GMT+0530 (IST)
p509
ssV4
(dp510
Vlightning_deals_product_price 
p511
V
sVlightning_deals_product_deal_time
p512
V Starts at 7:30 PM
p513
sVlightning_deals_product_title
p514
V925 Sterling Silver Bali Filigree Circle Dangle Earrings
p515
sVlightning_deals_product_percent_off
p516
V
sVlightning_deals_product_img 
p517
Vhttp://ecx.images-amazon.com/images/I/419GHxF3yTL._AA135_.jpg
p518
sVlightning_deals_dict_refrence_link 
p519
V/gp/product/B002E3DDNM/ref=gb1h_img_c-2_6602_ff705362?pf_rd_m=ATVPDKIKX0DER&pf_rd_t=701&pf_rd_s=center-new-2&pf_rd_r=09J4CR1TQVY6EQSV9M4P&pf_rd_i=20&pf_rd_p=1965626602
p520
sVlightning_deals_timestamp_collected
p521
VTue Nov 04 2014 17:03:59 GMT+0530 (IST)
p522
ssV6
(dp523
Vlightning_deals_product_price 
p524
V
sVlightning_deals_product_deal_time
p525
V Starts at 7:30 PM
p526
sVlightning_deals_product_title
p527
VPack of 4 Avery Economy View Binders with 2-Inch Slant Rings, White
p528
sVlightning_deals_product_percent_off
p529
V
sVlightning_deals_product_img 
p530
Vhttp://ecx.images-amazon.com/images/I/81pSwBFtE6L._SL1500__AA135_.jpg
p531
sVlightning_deals_dict_refrence_link 
p532
V/gp/product/B00IX1C51A/ref=gb1h_img_c-2_6602_616c85bd?pf_rd_m=ATVPDKIKX0DER&pf_rd_t=701&pf_rd_s=center-new-2&pf_rd_r=09J4CR1TQVY6EQSV9M4P&pf_rd_i=20&pf_rd_p=1965626602
p533
sVlightning_deals_timestamp_collected
p534
VTue Nov 04 2014 17:03:59 GMT+0530 (IST)
p535
sssV5
(dp536
V1
(dp537
Vlightning_deals_product_price 
p538
V
sVlightning_deals_product_deal_time
p539
V Starts at 8:00 PM
p540
sVlightning_deals_product_title
p541
VWomen's Pro Diver Timber Wolf Genuine Leather Pearlized Whit
p542
sVlightning_deals_product_percent_off
p543
V
sVlightning_deals_product_img 
p544
Vhttp://ecx.images-amazon.com/images/I/510%2BLLsH12L._AA135_.jpg
p545
sVlightning_deals_dict_refrence_link 
p546
V/gp/product/B00L4MTOSW/ref=gb1h_img_c-2_6602_ef437b73?pf_rd_m=ATVPDKIKX0DER&pf_rd_t=701&pf_rd_s=center-new-2&pf_rd_r=09J4CR1TQVY6EQSV9M4P&pf_rd_i=20&pf_rd_p=1965626602
p547
sVlightning_deals_timestamp_collected
p548
VTue Nov 04 2014 17:04:00 GMT+0530 (IST)
p549
ssV0
(dp550
Vlightning_deals_product_price 
p551
V
sVlightning_deals_product_deal_time
p552
V Starts at 8:00 PM
p553
sVlightning_deals_product_title
p554
VPerry Ellis Sportech Jacket
p555
sVlightning_deals_product_percent_off
p556
V
sVlightning_deals_product_img 
p557
Vhttp://ecx.images-amazon.com/images/I/41JY1n1En2L._AA135_.jpg
p558
sVlightning_deals_dict_refrence_link 
p559
V/gp/product/B00LM7GHDO/ref=gb1h_img_c-2_6602_84d0ca83?pf_rd_m=ATVPDKIKX0DER&pf_rd_t=701&pf_rd_s=center-new-2&pf_rd_r=09J4CR1TQVY6EQSV9M4P&pf_rd_i=20&pf_rd_p=1965626602
p560
sVlightning_deals_timestamp_collected
p561
VTue Nov 04 2014 17:04:00 GMT+0530 (IST)
p562
ssV3
(dp563
Vlightning_deals_product_price 
p564
V
sVlightning_deals_product_deal_time
p565
V Starts at 8:00 PM
p566
sVlightning_deals_product_title
p567
VNick Jr. Little Boys' Paw Patrol Graphic Raglan Long Sleeve Tee
p568
sVlightning_deals_product_percent_off
p569
V
sVlightning_deals_product_img 
p570
Vhttp://ecx.images-amazon.com/images/I/51vdnvGoNaL._AA135_.jpg
p571
sVlightning_deals_dict_refrence_link 
p572
Vhttp://www.amazon.com/dp/B00OO04RGA/ref=gb1h_img_c-2_6602_1c579c5c?pf_rd_m=ATVPDKIKX0DER&pf_rd_t=701&pf_rd_s=center-new-2&pf_rd_r=09J4CR1TQVY6EQSV9M4P&pf_rd_i=20&pf_rd_p=1965626602
p573
sVlightning_deals_timestamp_collected
p574
VTue Nov 04 2014 17:04:00 GMT+0530 (IST)
p575
ssV2
(dp576
Vlightning_deals_product_price 
p577
V
sVlightning_deals_product_deal_time
p578
V Starts at 8:00 PM
p579
sVlightning_deals_product_title
p580
VCalvin Klein Performance Women's Micro Polar Fleece Jacket with Stand Up Collar
p581
sVlightning_deals_product_percent_off
p582
V
sVlightning_deals_product_img 
p583
Vhttp://ecx.images-amazon.com/images/I/413qamOjm%2BL._AA135_.jpg
p584
sVlightning_deals_dict_refrence_link 
p585
V/gp/product/B00MN7EY3W/ref=gb1h_img_c-2_6602_bfe4dab4?pf_rd_m=ATVPDKIKX0DER&pf_rd_t=701&pf_rd_s=center-new-2&pf_rd_r=09J4CR1TQVY6EQSV9M4P&pf_rd_i=20&pf_rd_p=1965626602
p586
sVlightning_deals_timestamp_collected
p587
VTue Nov 04 2014 17:04:00 GMT+0530 (IST)
p588
ssV5
(dp589
Vlightning_deals_product_price 
p590
V
sVlightning_deals_product_deal_time
p591
V Starts at 8:00 PM
p592
sVlightning_deals_product_title
p593
VSteve Madden Legwear Women's 4 Pack Stripe Knee Sock
p594
sVlightning_deals_product_percent_off
p595
V
sVlightning_deals_product_img 
p596
Vhttp://ecx.images-amazon.com/images/I/41Y2Ohrd2YL._AA135_.jpg
p597
sVlightning_deals_dict_refrence_link 
p598
V/gp/product/B00JAM4VTU/ref=gb1h_img_c-2_6602_c94d5152?pf_rd_m=ATVPDKIKX0DER&pf_rd_t=701&pf_rd_s=center-new-2&pf_rd_r=09J4CR1TQVY6EQSV9M4P&pf_rd_i=20&pf_rd_p=1965626602
p599
sVlightning_deals_timestamp_collected
p600
VTue Nov 04 2014 17:04:00 GMT+0530 (IST)
p601
ssV4
(dp602
Vlightning_deals_product_price 
p603
V
sVlightning_deals_product_deal_time
p604
V Starts at 8:00 PM
p605
sVlightning_deals_product_title
p606
VLucien Piccard Men's 12011-YG-02S Monte Viso Chronograph Whi
p607
sVlightning_deals_product_percent_off
p608
V
sVlightning_deals_product_img 
p609
Vhttp://ecx.images-amazon.com/images/I/51wvzf8rCxL._AA135_.jpg
p610
sVlightning_deals_dict_refrence_link 
p611
V/gp/product/B00CFG347I/ref=gb1h_img_c-2_6602_d3955332?pf_rd_m=ATVPDKIKX0DER&pf_rd_t=701&pf_rd_s=center-new-2&pf_rd_r=09J4CR1TQVY6EQSV9M4P&pf_rd_i=20&pf_rd_p=1965626602
p612
sVlightning_deals_timestamp_collected
p613
VTue Nov 04 2014 17:04:00 GMT+0530 (IST)
p614
ssV6
(dp615
Vlightning_deals_product_price 
p616
V
sVlightning_deals_product_deal_time
p617
V Starts at 8:00 PM
p618
sVlightning_deals_product_title
p619
VT Tahari Women's Eliat Wool Coat
p620
sVlightning_deals_product_percent_off
p621
V
sVlightning_deals_product_img 
p622
Vhttp://ecx.images-amazon.com/images/I/31XxjDZnL-L._AA135_.jpg
p623
sVlightning_deals_dict_refrence_link 
p624
V/gp/product/B00L2EU2CE/ref=gb1h_img_c-2_6602_32994c3e?pf_rd_m=ATVPDKIKX0DER&pf_rd_t=701&pf_rd_s=center-new-2&pf_rd_r=09J4CR1TQVY6EQSV9M4P&pf_rd_i=20&pf_rd_p=1965626602
p625
sVlightning_deals_timestamp_collected
p626
VTue Nov 04 2014 17:04:00 GMT+0530 (IST)
p627
sssV4
(dp628
V1
(dp629
Vlightning_deals_product_price 
p630
V
sVlightning_deals_product_deal_time
p631
V Starts at 7:30 PM
p632
sVlightning_deals_product_title
p633
VIGI Certified 1 Carat Round Natural Diamond Screwback Studs
p634
sVlightning_deals_product_percent_off
p635
V
sVlightning_deals_product_img 
p636
Vhttp://ecx.images-amazon.com/images/I/41CqoA04otL._AA135_.jpg
p637
sVlightning_deals_dict_refrence_link 
p638
V/gp/product/B00OBKTWHC/ref=gb1h_img_c-2_6602_22731671?pf_rd_m=ATVPDKIKX0DER&pf_rd_t=701&pf_rd_s=center-new-2&pf_rd_r=09J4CR1TQVY6EQSV9M4P&pf_rd_i=20&pf_rd_p=1965626602
p639
sVlightning_deals_timestamp_collected
p640
VTue Nov 04 2014 17:03:59 GMT+0530 (IST)
p641
ssV0
(dp642
Vlightning_deals_product_price 
p643
V
sVlightning_deals_product_deal_time
p644
V Starts at 7:30 PM
p645
sVlightning_deals_product_title
p646
VJ.Goodman Sterling Silver Black Spinel Money Clip
p647
sVlightning_deals_product_percent_off
p648
V
sVlightning_deals_product_img 
p649
Vhttp://ecx.images-amazon.com/images/I/51MRq4BkAEL._AA135_.jpg
p650
sVlightning_deals_dict_refrence_link 
p651
V/gp/product/B007OX1208/ref=gb1h_img_c-2_6602_4325b8c5?pf_rd_m=ATVPDKIKX0DER&pf_rd_t=701&pf_rd_s=center-new-2&pf_rd_r=09J4CR1TQVY6EQSV9M4P&pf_rd_i=20&pf_rd_p=1965626602
p652
sVlightning_deals_timestamp_collected
p653
VTue Nov 04 2014 17:03:59 GMT+0530 (IST)
p654
ssV3
(dp655
Vlightning_deals_product_price 
p656
V
sVlightning_deals_product_deal_time
p657
V Starts at 7:30 PM
p658
sVlightning_deals_product_title
p659
V0.75 CT 14k White Gold Round Diamond Cluster Stud Earrings
p660
sVlightning_deals_product_percent_off
p661
V
sVlightning_deals_product_img 
p662
Vhttp://ecx.images-amazon.com/images/I/51d0NGpk1dL._AA135_.jpg
p663
sVlightning_deals_dict_refrence_link 
p664
V/gp/product/B004XN1Y96/ref=gb1h_img_c-2_6602_4a5f10eb?pf_rd_m=ATVPDKIKX0DER&pf_rd_t=701&pf_rd_s=center-new-2&pf_rd_r=09J4CR1TQVY6EQSV9M4P&pf_rd_i=20&pf_rd_p=1965626602
p665
sVlightning_deals_timestamp_collected
p666
VTue Nov 04 2014 17:03:59 GMT+0530 (IST)
p667
ssV2
(dp668
Vlightning_deals_product_price 
p669
V
sVlightning_deals_product_deal_time
p670
V Starts at 7:30 PM
p671
sVlightning_deals_product_title
p672
VRound Brilliant Diamond Pendant in 14K White Gold With Chain
p673
sVlightning_deals_product_percent_off
p674
V
sVlightning_deals_product_img 
p675
Vhttp://ecx.images-amazon.com/images/I/41lcW0LMeCL._AA135_.jpg
p676
sVlightning_deals_dict_refrence_link 
p677
V/gp/product/B00O3HE8QS/ref=gb1h_img_c-2_6602_9755d4ef?pf_rd_m=ATVPDKIKX0DER&pf_rd_t=701&pf_rd_s=center-new-2&pf_rd_r=09J4CR1TQVY6EQSV9M4P&pf_rd_i=20&pf_rd_p=1965626602
p678
sVlightning_deals_timestamp_collected
p679
VTue Nov 04 2014 17:03:59 GMT+0530 (IST)
p680
ssV5
(dp681
Vlightning_deals_product_price 
p682
V
sVlightning_deals_product_deal_time
p683
V Starts at 8:00 PM
p684
sVlightning_deals_product_title
p685
VAnne Klein Women's 2 Pack Double Diamond Tight
p686
sVlightning_deals_product_percent_off
p687
V
sVlightning_deals_product_img 
p688
Vhttp://ecx.images-amazon.com/images/I/31Lu4hFHS8L._AA135_.jpg
p689
sVlightning_deals_dict_refrence_link 
p690
V/gp/product/B0068BKWEY/ref=gb1h_img_c-2_6602_3e8c2f60?pf_rd_m=ATVPDKIKX0DER&pf_rd_t=701&pf_rd_s=center-new-2&pf_rd_r=09J4CR1TQVY6EQSV9M4P&pf_rd_i=20&pf_rd_p=1965626602
p691
sVlightning_deals_timestamp_collected
p692
VTue Nov 04 2014 17:04:00 GMT+0530 (IST)
p693
ssV4
(dp694
Vlightning_deals_product_price 
p695
V
sVlightning_deals_product_deal_time
p696
V Starts at 8:00 PM
p697
sVlightning_deals_product_title
p698
VSaucony Men's Kinvara 4 Running Shoe
p699
sVlightning_deals_product_percent_off
p700
V
sVlightning_deals_product_img 
p701
Vhttp://ecx.images-amazon.com/images/I/41ZUXzlm%2BBL._AA135_.jpg
p702
sVlightning_deals_dict_refrence_link 
p703
V/gp/product/B00CUZKO7M/ref=gb1h_img_c-2_6602_c444cbd4?pf_rd_m=ATVPDKIKX0DER&pf_rd_t=701&pf_rd_s=center-new-2&pf_rd_r=09J4CR1TQVY6EQSV9M4P&pf_rd_i=20&pf_rd_p=1965626602
p704
sVlightning_deals_timestamp_collected
p705
VTue Nov 04 2014 17:04:00 GMT+0530 (IST)
p706
ssV6
(dp707
Vlightning_deals_product_price 
p708
V
sVlightning_deals_product_deal_time
p709
V Starts for you at 8:30 PM
p710
sVlightning_deals_product_title
p711
VClassic Designs Womens "Cute Kitty" Soft Fleece Hoodie
p712
sVlightning_deals_product_percent_off
p713
V
sVlightning_deals_product_img 
p714
Vhttp://ecx.images-amazon.com/images/I/41JU0sw4TRL._AA135_.jpg
p715
sVlightning_deals_dict_refrence_link 
p716
Vhttp://www.amazon.com/dp/B00ONUT0HM/ref=gb1h_img_c-2_6602_5b7e3f8d?pf_rd_m=ATVPDKIKX0DER&pf_rd_t=701&pf_rd_s=center-new-2&pf_rd_r=09J4CR1TQVY6EQSV9M4P&pf_rd_i=20&pf_rd_p=1965626602
p717
sVlightning_deals_timestamp_collected
p718
VTue Nov 04 2014 17:04:00 GMT+0530 (IST)
p719
sssV7
(dp720
V1
(dp721
Vlightning_deals_product_price 
p722
V
sVlightning_deals_product_deal_time
p723
V Starts at 10:00 PM
p724
sVlightning_deals_product_title
p725
VKOSHA Feather Bookmark
p726
sVlightning_deals_product_percent_off
p727
V
sVlightning_deals_product_img 
p728
Vhttp://ecx.images-amazon.com/images/I/41nIKe2Z3WL._AA135_.jpg
p729
sVlightning_deals_dict_refrence_link 
p730
V/gp/product/B00A4BLYDM/ref=gb1h_img_c-2_6602_ae0017f7?pf_rd_m=ATVPDKIKX0DER&pf_rd_t=701&pf_rd_s=center-new-2&pf_rd_r=09J4CR1TQVY6EQSV9M4P&pf_rd_i=20&pf_rd_p=1965626602
p731
sVlightning_deals_timestamp_collected
p732
VTue Nov 04 2014 17:04:01 GMT+0530 (IST)
p733
ssV0
(dp734
Vlightning_deals_product_price 
p735
V
sVlightning_deals_product_deal_time
p736
V Starts at 9:30 PM
p737
sVlightning_deals_product_title
p738
VNumark Mixtrack II USB DJ Controller with Trigger Pads
p739
sVlightning_deals_product_percent_off
p740
V
sVlightning_deals_product_img 
p741
Vhttp://ecx.images-amazon.com/images/I/41FPx8PJ4%2BL._AA135_.jpg
p742
sVlightning_deals_dict_refrence_link 
p743
V/gp/product/B00CEIA1G4/ref=gb1h_img_c-2_6602_3f195887?pf_rd_m=ATVPDKIKX0DER&pf_rd_t=701&pf_rd_s=center-new-2&pf_rd_r=09J4CR1TQVY6EQSV9M4P&pf_rd_i=20&pf_rd_p=1965626602
p744
sVlightning_deals_timestamp_collected
p745
VTue Nov 04 2014 17:04:01 GMT+0530 (IST)
p746
ssV3
(dp747
Vlightning_deals_product_price 
p748
V
sVlightning_deals_product_deal_time
p749
V Starts for you at 11:00 PM
p750
sVlightning_deals_product_title
p751
VSterling Silver Round Diamond Heart Ring (1/10 cttw)
p752
sVlightning_deals_product_percent_off
p753
V
sVlightning_deals_product_img 
p754
Vhttp://ecx.images-amazon.com/images/I/41-RWMMApIL._AA135_.jpg
p755
sVlightning_deals_dict_refrence_link 
p756
V/gp/product/B004MXAFYC/ref=gb1h_img_c-2_6602_5f9db73c?pf_rd_m=ATVPDKIKX0DER&pf_rd_t=701&pf_rd_s=center-new-2&pf_rd_r=09J4CR1TQVY6EQSV9M4P&pf_rd_i=20&pf_rd_p=1965626602
p757
sVlightning_deals_timestamp_collected
p758
VTue Nov 04 2014 17:04:01 GMT+0530 (IST)
p759
ssV2
(dp760
Vlightning_deals_product_price 
p761
V
sVlightning_deals_product_deal_time
p762
V Starts for you at 10:50 PM
p763
sVlightning_deals_product_title
p764
VSony ICFC11IP/WHT Lightning iPhone/iPod Clock Radio Speaker Dock
p765
sVlightning_deals_product_percent_off
p766
V
sVlightning_deals_product_img 
p767
Vhttp://ecx.images-amazon.com/images/I/31OyvnTraiL._AA135_.jpg
p768
sVlightning_deals_dict_refrence_link 
p769
V/gp/product/B00ODS1EGY/ref=gb1h_img_c-2_6602_3c9f4907?pf_rd_m=ATVPDKIKX0DER&pf_rd_t=701&pf_rd_s=center-new-2&pf_rd_r=09J4CR1TQVY6EQSV9M4P&pf_rd_i=20&pf_rd_p=1965626602
p770
sVlightning_deals_timestamp_collected
p771
VTue Nov 04 2014 17:04:01 GMT+0530 (IST)
p772
ssV5
(dp773
Vlightning_deals_product_price 
p774
V
sVlightning_deals_product_deal_time
p775
V Starts at 10:30 PM
p776
sVlightning_deals_product_title
p777
VLoving Family Sterling Mother Child Pendant, 2 Children
p778
sVlightning_deals_product_percent_off
p779
V
sVlightning_deals_product_img 
p780
Vhttp://ecx.images-amazon.com/images/I/3114sSl8JXL._AA135_.jpg
p781
sVlightning_deals_dict_refrence_link 
p782
V/gp/product/B000PAOHCW/ref=gb1h_img_c-2_6602_a2ccc6ab?pf_rd_m=ATVPDKIKX0DER&pf_rd_t=701&pf_rd_s=center-new-2&pf_rd_r=09J4CR1TQVY6EQSV9M4P&pf_rd_i=20&pf_rd_p=1965626602
p783
sVlightning_deals_timestamp_collected
p784
VTue Nov 04 2014 17:04:01 GMT+0530 (IST)
p785
ssV4
(dp786
Vlightning_deals_product_price 
p787
V
sVlightning_deals_product_deal_time
p788
V Starts for you at 11:00 PM
p789
sVlightning_deals_product_title
p790
VStar K Heart 8mm Simulated Aquamarine Pendant
p791
sVlightning_deals_product_percent_off
p792
V
sVlightning_deals_product_img 
p793
Vhttp://ecx.images-amazon.com/images/I/41of0OynWZL._AA135_.jpg
p794
sVlightning_deals_dict_refrence_link 
p795
V/gp/product/B001I83J6A/ref=gb1h_img_c-2_6602_2a03668b?pf_rd_m=ATVPDKIKX0DER&pf_rd_t=701&pf_rd_s=center-new-2&pf_rd_r=09J4CR1TQVY6EQSV9M4P&pf_rd_i=20&pf_rd_p=1965626602
p796
sVlightning_deals_timestamp_collected
p797
VTue Nov 04 2014 17:04:01 GMT+0530 (IST)
p798
ssV6
(dp799
Vlightning_deals_product_price 
p800
V
sVlightning_deals_product_deal_time
p801
V Starts at 10:30 PM
p802
sVlightning_deals_product_title
p803
VSterling Silver Hoop Earrings with Swarovski Elements
p804
sVlightning_deals_product_percent_off
p805
V
sVlightning_deals_product_img 
p806
Vhttp://ecx.images-amazon.com/images/I/51wLwwvrrfL._AA135_.jpg
p807
sVlightning_deals_dict_refrence_link 
p808
V/gp/product/B00B9JJLLK/ref=gb1h_img_c-2_6602_6ee122c9?pf_rd_m=ATVPDKIKX0DER&pf_rd_t=701&pf_rd_s=center-new-2&pf_rd_r=09J4CR1TQVY6EQSV9M4P&pf_rd_i=20&pf_rd_p=1965626602
p809
sVlightning_deals_timestamp_collected
p810
VTue Nov 04 2014 17:04:01 GMT+0530 (IST)
p811
sssV6
(dp812
V1
(dp813
Vlightning_deals_product_price 
p814
V
sVlightning_deals_product_deal_time
p815
V Starts for you at 8:50 PM
p816
sVlightning_deals_product_title
p817
VApe Case Pro Digital SLR and Video Camera Backpack (ACPRO2000)
p818
sVlightning_deals_product_percent_off
p819
V
sVlightning_deals_product_img 
p820
Vhttp://ecx.images-amazon.com/images/I/41m%2BHg7iSiL._AA135_.jpg
p821
sVlightning_deals_dict_refrence_link 
p822
V/gp/product/B000WH86BQ/ref=gb1h_img_c-2_6602_0b901c83?pf_rd_m=ATVPDKIKX0DER&pf_rd_t=701&pf_rd_s=center-new-2&pf_rd_r=09J4CR1TQVY6EQSV9M4P&pf_rd_i=20&pf_rd_p=1965626602
p823
sVlightning_deals_timestamp_collected
p824
VTue Nov 04 2014 17:04:00 GMT+0530 (IST)
p825
ssV0
(dp826
Vlightning_deals_product_price 
p827
V
sVlightning_deals_product_deal_time
p828
V Starts at 8:00 PM
p829
sVlightning_deals_product_title
p830
VNixon The Rubber Player Men's Watch - Black
p831
sVlightning_deals_product_percent_off
p832
V
sVlightning_deals_product_img 
p833
Vhttp://ecx.images-amazon.com/images/I/41dKGBB-ijL._AA135_.jpg
p834
sVlightning_deals_dict_refrence_link 
p835
V/gp/product/B0028IVXGW/ref=gb1h_img_c-2_6602_b22ce688?pf_rd_m=ATVPDKIKX0DER&pf_rd_t=701&pf_rd_s=center-new-2&pf_rd_r=09J4CR1TQVY6EQSV9M4P&pf_rd_i=20&pf_rd_p=1965626602
p836
sVlightning_deals_timestamp_collected
p837
VTue Nov 04 2014 17:04:00 GMT+0530 (IST)
p838
ssV3
(dp839
Vlightning_deals_product_price 
p840
V
sVlightning_deals_product_deal_time
p841
V Starts for you at 9:00 PM
p842
sVlightning_deals_product_title
p843
VGund Buddy-Boo's Best Friend Plush
p844
sVlightning_deals_product_percent_off
p845
V
sVlightning_deals_product_img 
p846
Vhttp://ecx.images-amazon.com/images/I/51byEYn0VyL._AA135_.jpg
p847
sVlightning_deals_dict_refrence_link 
p848
V/gp/product/B00HTNVUJG/ref=gb1h_img_c-2_6602_c41b0d07?pf_rd_m=ATVPDKIKX0DER&pf_rd_t=701&pf_rd_s=center-new-2&pf_rd_r=09J4CR1TQVY6EQSV9M4P&pf_rd_i=20&pf_rd_p=1965626602
p849
sVlightning_deals_timestamp_collected
p850
VTue Nov 04 2014 17:04:00 GMT+0530 (IST)
p851
ssV2
(dp852
Vlightning_deals_product_price 
p853
V
sVlightning_deals_product_deal_time
p854
V Starts for you at 8:50 PM
p855
sVlightning_deals_product_title
p856
VProxy PCN5129DW 700 TVL CCD Weatherproof Outdoor Turret Dome Security Camera with Fixed Lens 3.6mm for 75-Feet Night Vision (White)
p857
sVlightning_deals_product_percent_off
p858
V
sVlightning_deals_product_img 
p859
Vhttp://ecx.images-amazon.com/images/I/41-XjrfBHZL._AA135_.jpg
p860
sVlightning_deals_dict_refrence_link 
p861
V/gp/product/B00LFK2T1W/ref=gb1h_img_c-2_6602_5c05a9c1?pf_rd_m=ATVPDKIKX0DER&pf_rd_t=701&pf_rd_s=center-new-2&pf_rd_r=09J4CR1TQVY6EQSV9M4P&pf_rd_i=20&pf_rd_p=1965626602
p862
sVlightning_deals_timestamp_collected
p863
VTue Nov 04 2014 17:04:00 GMT+0530 (IST)
p864
ssV5
(dp865
Vlightning_deals_product_price 
p866
V
sVlightning_deals_product_deal_time
p867
V Starts for you at 10:00 PM
p868
sVlightning_deals_product_title
p869
VPeter Rabbit Plush
p870
sVlightning_deals_product_percent_off
p871
V
sVlightning_deals_product_img 
p872
Vhttp://ecx.images-amazon.com/images/I/513Mca5B0dL._AA135_.jpg
p873
sVlightning_deals_dict_refrence_link 
p874
V/gp/product/B00HU650X4/ref=gb1h_img_c-2_6602_8dfce1bd?pf_rd_m=ATVPDKIKX0DER&pf_rd_t=701&pf_rd_s=center-new-2&pf_rd_r=09J4CR1TQVY6EQSV9M4P&pf_rd_i=20&pf_rd_p=1965626602
p875
sVlightning_deals_timestamp_collected
p876
VTue Nov 04 2014 17:04:00 GMT+0530 (IST)
p877
ssV4
(dp878
Vlightning_deals_product_price 
p879
V
sVlightning_deals_product_deal_time
p880
V Starts at 9:00 PM
p881
sVlightning_deals_product_title
p882
VRockport Men's City Smart WP Bike Toe Oxford
p883
sVlightning_deals_product_percent_off
p884
V
sVlightning_deals_product_img 
p885
Vhttp://ecx.images-amazon.com/images/I/41An0XfFbHL._AA135_.jpg
p886
sVlightning_deals_dict_refrence_link 
p887
V/gp/product/B00I5FBAD8/ref=gb1h_img_c-2_6602_52af0aef?pf_rd_m=ATVPDKIKX0DER&pf_rd_t=701&pf_rd_s=center-new-2&pf_rd_r=09J4CR1TQVY6EQSV9M4P&pf_rd_i=20&pf_rd_p=1965626602
p888
sVlightning_deals_timestamp_collected
p889
VTue Nov 04 2014 17:04:00 GMT+0530 (IST)
p890
ssV6
(dp891
Vlightning_deals_product_price 
p892
V
sVlightning_deals_product_deal_time
p893
V Starts for you at 10:00 PM
p894
sVlightning_deals_product_title
p895
VAir Wick Scented Oil Air Freshener, Snuggle Fresh Linen, 12 Refills
p896
sVlightning_deals_product_percent_off
p897
V
sVlightning_deals_product_img 
p898
Vhttp://ecx.images-amazon.com/images/I/91PC6Q1CCyL._SL1500__AA135_.jpg
p899
sVlightning_deals_dict_refrence_link 
p900
V/gp/product/B0040ZOPPM/ref=gb1h_img_c-2_6602_a28aa48a?pf_rd_m=ATVPDKIKX0DER&pf_rd_t=701&pf_rd_s=center-new-2&pf_rd_r=09J4CR1TQVY6EQSV9M4P&pf_rd_i=20&pf_rd_p=1965626602
p901
sVlightning_deals_timestamp_collected
p902
VTue Nov 04 2014 17:04:00 GMT+0530 (IST)
p903
sssV9
(dp904
V1
(dp905
Vlightning_deals_product_price 
p906
V
sVlightning_deals_product_deal_time
p907
V Starts for you at 11:00 PM
p908
sVlightning_deals_product_title
p909
VCurious George Teach
p910
sVlightning_deals_product_percent_off
p911
V
sVlightning_deals_product_img 
p912
Vhttp://ecx.images-amazon.com/images/I/41tQNjYJBAL._AA135_.jpg
p913
sVlightning_deals_dict_refrence_link 
p914
V/gp/product/B00IOSSYSA/ref=gb1h_img_c-2_6602_dfb73246?pf_rd_m=ATVPDKIKX0DER&pf_rd_t=701&pf_rd_s=center-new-2&pf_rd_r=09J4CR1TQVY6EQSV9M4P&pf_rd_i=20&pf_rd_p=1965626602
p915
sVlightning_deals_timestamp_collected
p916
VTue Nov 04 2014 17:04:02 GMT+0530 (IST)
p917
ssV0
(dp918
Vlightning_deals_product_price 
p919
V
sVlightning_deals_product_deal_time
p920
V Starts at 10:30 PM
p921
sVlightning_deals_product_title
p922
V14k Yellow Gold with 8-9mm White Freshwater Pearl Lever-back
p923
sVlightning_deals_product_percent_off
p924
V
sVlightning_deals_product_img 
p925
Vhttp://ecx.images-amazon.com/images/I/41YZWWbqeEL._AA135_.jpg
p926
sVlightning_deals_dict_refrence_link 
p927
V/gp/product/B00BSFZJYS/ref=gb1h_img_c-2_6602_931c85b4?pf_rd_m=ATVPDKIKX0DER&pf_rd_t=701&pf_rd_s=center-new-2&pf_rd_r=09J4CR1TQVY6EQSV9M4P&pf_rd_i=20&pf_rd_p=1965626602
p928
sVlightning_deals_timestamp_collected
p929
VTue Nov 04 2014 17:04:02 GMT+0530 (IST)
p930
ssV3
(dp931
Vlightning_deals_product_price 
p932
V
sVlightning_deals_product_deal_time
p933
V Starts at 10:30 PM
p934
sVlightning_deals_product_title
p935
V1.50 Ct Round Cut Halo Diamond Pendant Necklace White Gold
p936
sVlightning_deals_product_percent_off
p937
V
sVlightning_deals_product_img 
p938
Vhttp://ecx.images-amazon.com/images/I/41MQkfIqbgL._AA135_.jpg
p939
sVlightning_deals_dict_refrence_link 
p940
V/gp/product/B00OZXBLZ6/ref=gb1h_img_c-2_6602_47bb5adc?pf_rd_m=ATVPDKIKX0DER&pf_rd_t=701&pf_rd_s=center-new-2&pf_rd_r=09J4CR1TQVY6EQSV9M4P&pf_rd_i=20&pf_rd_p=1965626602
p941
sVlightning_deals_timestamp_collected
p942
VTue Nov 04 2014 17:04:02 GMT+0530 (IST)
p943
ssV2
(dp944
Vlightning_deals_product_price 
p945
V
sVlightning_deals_product_deal_time
p946
V Starts at 10:30 PM
p947
sVlightning_deals_product_title
p948
V0.15 ct Heart Diamond Pendant in 10k White Gold (GH, I2-I3)
p949
sVlightning_deals_product_percent_off
p950
V
sVlightning_deals_product_img 
p951
Vhttp://ecx.images-amazon.com/images/I/41YYdOep6ZL._AA135_.jpg
p952
sVlightning_deals_dict_refrence_link 
p953
V/gp/product/B00HYFRH00/ref=gb1h_img_c-2_6602_ad3f8dbc?pf_rd_m=ATVPDKIKX0DER&pf_rd_t=701&pf_rd_s=center-new-2&pf_rd_r=09J4CR1TQVY6EQSV9M4P&pf_rd_i=20&pf_rd_p=1965626602
p954
sVlightning_deals_timestamp_collected
p955
VTue Nov 04 2014 17:04:02 GMT+0530 (IST)
p956
ssV5
(dp957
Vlightning_deals_product_price 
p958
V
sVlightning_deals_product_deal_time
p959
V Starts at 11:00 PM
p960
sVlightning_deals_product_title
p961
VOakley Men's Gauge Chronograph Brushed Blue Watch
p962
sVlightning_deals_product_percent_off
p963
V
sVlightning_deals_product_img 
p964
Vhttp://ecx.images-amazon.com/images/I/51EOXFrUuJL._AA135_.jpg
p965
sVlightning_deals_dict_refrence_link 
p966
V/gp/product/B002X7AAJE/ref=gb1h_img_c-2_6602_930d45a2?pf_rd_m=ATVPDKIKX0DER&pf_rd_t=701&pf_rd_s=center-new-2&pf_rd_r=09J4CR1TQVY6EQSV9M4P&pf_rd_i=20&pf_rd_p=1965626602
p967
sVlightning_deals_timestamp_collected
p968
VTue Nov 04 2014 17:04:02 GMT+0530 (IST)
p969
ssV4
(dp970
Vlightning_deals_product_price 
p971
V
sVlightning_deals_product_deal_time
p972
V Starts at 11:00 PM
p973
sVlightning_deals_product_title
p974
VSector Men's Urban Black Eagle Analog Stainless Steel Watch
p975
sVlightning_deals_product_percent_off
p976
V
sVlightning_deals_product_img 
p977
Vhttp://ecx.images-amazon.com/images/I/51qNR887dxL._AA135_.jpg
p978
sVlightning_deals_dict_refrence_link 
p979
V/gp/product/B004LP3QQK/ref=gb1h_img_c-2_6602_1a11b984?pf_rd_m=ATVPDKIKX0DER&pf_rd_t=701&pf_rd_s=center-new-2&pf_rd_r=09J4CR1TQVY6EQSV9M4P&pf_rd_i=20&pf_rd_p=1965626602
p980
sVlightning_deals_timestamp_collected
p981
VTue Nov 04 2014 17:04:02 GMT+0530 (IST)
p982
ssV6
(dp983
Vlightning_deals_product_price 
p984
V
sVlightning_deals_product_deal_time
p985
V Starts for you at 11:40 PM
p986
sVlightning_deals_product_title
p987
VHDE 13-Port High Speed USB 2.0 Hub with On/Off Switch - Black
p988
sVlightning_deals_product_percent_off
p989
V
sVlightning_deals_product_img 
p990
Vhttp://ecx.images-amazon.com/images/I/51iabXgYmRL._AA135_.jpg
p991
sVlightning_deals_dict_refrence_link 
p992
Vhttp://www.amazon.com/HDE-13-Port-High-Speed-Switch/dp/B00802O1JQ/ref=gb1h_img_c-2_6602_087f0df0?s=aps&ie=UTF8&qid=1414533275&sr=1-1-catcorr&keywords=B00802O1JQ&pf_rd_m=ATVPDKIKX0DER&pf_rd_t=701&pf_rd_s=center-new-2&pf_rd_r=09J4CR1TQVY6EQSV9M4P&pf_rd_i=20&pf_rd_p=1965626602
p993
sVlightning_deals_timestamp_collected
p994
VTue Nov 04 2014 17:04:02 GMT+0530 (IST)
p995
sssV8
(dp996
V1
(dp997
Vlightning_deals_product_price 
p998
V
sVlightning_deals_product_deal_time
p999
V Starts at 10:30 PM
p1000
sVlightning_deals_product_title
p1001
VBling Jewelry Princess CZ Engagement Wedding Ring Set Silver
p1002
sVlightning_deals_product_percent_off
p1003
V
sVlightning_deals_product_img 
p1004
Vhttp://ecx.images-amazon.com/images/I/41urR1BV69L._AA135_.jpg
p1005
sVlightning_deals_dict_refrence_link 
p1006
V/gp/product/B008FQN0SA/ref=gb1h_img_c-2_6602_7a17641a?pf_rd_m=ATVPDKIKX0DER&pf_rd_t=701&pf_rd_s=center-new-2&pf_rd_r=09J4CR1TQVY6EQSV9M4P&pf_rd_i=20&pf_rd_p=1965626602
p1007
sVlightning_deals_timestamp_collected
p1008
VTue Nov 04 2014 17:04:01 GMT+0530 (IST)
p1009
ssV0
(dp1010
Vlightning_deals_product_price 
p1011
V
sVlightning_deals_product_deal_time
p1012
V Starts for you at 11:00 PM
p1013
sVlightning_deals_product_title
p1014
VSet of 3 Solid copper beating bowls (2 Qt, 4 Qt, 5 Qt.)
p1015
sVlightning_deals_product_percent_off
p1016
V
sVlightning_deals_product_img 
p1017
Vhttp://ecx.images-amazon.com/images/I/31w%2BZI27ESL._AA135_.jpg
p1018
sVlightning_deals_dict_refrence_link 
p1019
V/gp/product/B00005Q5GG/ref=gb1h_img_c-2_6602_67cade4b?pf_rd_m=ATVPDKIKX0DER&pf_rd_t=701&pf_rd_s=center-new-2&pf_rd_r=09J4CR1TQVY6EQSV9M4P&pf_rd_i=20&pf_rd_p=1965626602
p1020
sVlightning_deals_timestamp_collected
p1021
VTue Nov 04 2014 17:04:01 GMT+0530 (IST)
p1022
ssV3
(dp1023
Vlightning_deals_product_price 
p1024
V
sVlightning_deals_product_deal_time
p1025
V Starts at 10:30 PM
p1026
sVlightning_deals_product_title
p1027
V3 1/2ct Green Amethyst Leverback Earrings, Sterling Silver
p1028
sVlightning_deals_product_percent_off
p1029
V
sVlightning_deals_product_img 
p1030
Vhttp://ecx.images-amazon.com/images/I/41AOeix49aL._AA135_.jpg
p1031
sVlightning_deals_dict_refrence_link 
p1032
V/gp/product/B005O9ZC7S/ref=gb1h_img_c-2_6602_0c1be66f?pf_rd_m=ATVPDKIKX0DER&pf_rd_t=701&pf_rd_s=center-new-2&pf_rd_r=09J4CR1TQVY6EQSV9M4P&pf_rd_i=20&pf_rd_p=1965626602
p1033
sVlightning_deals_timestamp_collected
p1034
VTue Nov 04 2014 17:04:01 GMT+0530 (IST)
p1035
ssV2
(dp1036
Vlightning_deals_product_price 
p1037
V
sVlightning_deals_product_deal_time
p1038
V Starts at 10:30 PM
p1039
sVlightning_deals_product_title
p1040
V6.00 Ct Round 6 Row Cubic Zirconias CZ 7" Tennis Bracelet
p1041
sVlightning_deals_product_percent_off
p1042
V
sVlightning_deals_product_img 
p1043
Vhttp://ecx.images-amazon.com/images/I/51pSroNp-KL._AA135_.jpg
p1044
sVlightning_deals_dict_refrence_link 
p1045
V/gp/product/B00AYYRLXG/ref=gb1h_img_c-2_6602_3170069e?pf_rd_m=ATVPDKIKX0DER&pf_rd_t=701&pf_rd_s=center-new-2&pf_rd_r=09J4CR1TQVY6EQSV9M4P&pf_rd_i=20&pf_rd_p=1965626602
p1046
sVlightning_deals_timestamp_collected
p1047
VTue Nov 04 2014 17:04:01 GMT+0530 (IST)
p1048
ssV5
(dp1049
Vlightning_deals_product_price 
p1050
V
sVlightning_deals_product_deal_time
p1051
V Starts at 10:30 PM
p1052
sVlightning_deals_product_title
p1053
V0.40 CT Diamond Earrings 10K White Gold
p1054
sVlightning_deals_product_percent_off
p1055
V
sVlightning_deals_product_img 
p1056
Vhttp://ecx.images-amazon.com/images/I/41asT6OEg9L._AA135_.jpg
p1057
sVlightning_deals_dict_refrence_link 
p1058
V/gp/product/B00OO6DZ0S/ref=gb1h_img_c-2_6602_62c183d1?pf_rd_m=ATVPDKIKX0DER&pf_rd_t=701&pf_rd_s=center-new-2&pf_rd_r=09J4CR1TQVY6EQSV9M4P&pf_rd_i=20&pf_rd_p=1965626602
p1059
sVlightning_deals_timestamp_collected
p1060
VTue Nov 04 2014 17:04:01 GMT+0530 (IST)
p1061
ssV4
(dp1062
Vlightning_deals_product_price 
p1063
V
sVlightning_deals_product_deal_time
p1064
V Starts for you at 11:00 PM
p1065
sVlightning_deals_product_title
p1066
VStriiv Touch Lightning Deal
p1067
sVlightning_deals_product_percent_off
p1068
V
sVlightning_deals_product_img 
p1069
Vhttp://ecx.images-amazon.com/images/I/41WPZEDgsSL._AA135_.jpg
p1070
sVlightning_deals_dict_refrence_link 
p1071
V/gp/product/B00JSQQZMY/ref=gb1h_img_c-2_6602_c2137afa?pf_rd_m=ATVPDKIKX0DER&pf_rd_t=701&pf_rd_s=center-new-2&pf_rd_r=09J4CR1TQVY6EQSV9M4P&pf_rd_i=20&pf_rd_p=1965626602
p1072
sVlightning_deals_timestamp_collected
p1073
VTue Nov 04 2014 17:04:01 GMT+0530 (IST)
p1074
ssV6
(dp1075
Vlightning_deals_product_price 
p1076
V
sVlightning_deals_product_deal_time
p1077
V Starts at 10:30 PM
p1078
sVlightning_deals_product_title
p1079
VLittle Virtuoso 30 Key Toy Piano White
p1080
sVlightning_deals_product_percent_off
p1081
V
sVlightning_deals_product_img 
p1082
Vhttp://ecx.images-amazon.com/images/I/41TdEXqMPfL._AA135_.jpg
p1083
sVlightning_deals_dict_refrence_link 
p1084
V/gp/product/B00K7C94VC/ref=gb1h_img_c-2_6602_5363db6b?pf_rd_m=ATVPDKIKX0DER&pf_rd_t=701&pf_rd_s=center-new-2&pf_rd_r=09J4CR1TQVY6EQSV9M4P&pf_rd_i=20&pf_rd_p=1965626602
p1085
sVlightning_deals_timestamp_collected
p1086
VTue Nov 04 2014 17:04:01 GMT+0530 (IST)
p1087
sssV11
p1088
(dp1089
V1
(dp1090
Vlightning_deals_product_price 
p1091
V
sVlightning_deals_product_deal_time
p1092
V Starts at 12:00 AM
p1093
sVlightning_deals_product_title
p1094
VCole Haan Men's Monroe Belt
p1095
sVlightning_deals_product_percent_off
p1096
V
sVlightning_deals_product_img 
p1097
Vhttp://ecx.images-amazon.com/images/I/413iTe%2B%2BiCL._AA135_.jpg
p1098
sVlightning_deals_dict_refrence_link 
p1099
V/gp/product/B00F93LD22/ref=gb1h_img_c-2_6602_57a235ec?pf_rd_m=ATVPDKIKX0DER&pf_rd_t=701&pf_rd_s=center-new-2&pf_rd_r=09J4CR1TQVY6EQSV9M4P&pf_rd_i=20&pf_rd_p=1965626602
p1100
sVlightning_deals_timestamp_collected
p1101
VTue Nov 04 2014 17:04:03 GMT+0530 (IST)
p1102
ssV0
(dp1103
Vlightning_deals_product_price 
p1104
V
sVlightning_deals_product_deal_time
p1105
V Starts at 12:00 AM
p1106
sVlightning_deals_product_title
p1107
VD&Y Women's Single Loop Ruhge Scarf
p1108
sVlightning_deals_product_percent_off
p1109
V
sVlightning_deals_product_img 
p1110
Vhttp://ecx.images-amazon.com/images/I/61SdrZmLFOL._AA135_.jpg
p1111
sVlightning_deals_dict_refrence_link 
p1112
V/gp/product/B00M0L4KKS/ref=gb1h_img_c-2_6602_81d257a6?pf_rd_m=ATVPDKIKX0DER&pf_rd_t=701&pf_rd_s=center-new-2&pf_rd_r=09J4CR1TQVY6EQSV9M4P&pf_rd_i=20&pf_rd_p=1965626602
p1113
sVlightning_deals_timestamp_collected
p1114
VTue Nov 04 2014 17:04:03 GMT+0530 (IST)
p1115
ssV3
(dp1116
Vlightning_deals_product_price 
p1117
V
sVlightning_deals_product_deal_time
p1118
V Starts at 12:00 AM
p1119
sVlightning_deals_product_title
p1120
VLucien Piccard Men's 12011-023S-BL Monte Viso Chronograph Wh
p1121
sVlightning_deals_product_percent_off
p1122
V
sVlightning_deals_product_img 
p1123
Vhttp://ecx.images-amazon.com/images/I/51vMxQZBV4L._AA135_.jpg
p1124
sVlightning_deals_dict_refrence_link 
p1125
V/gp/product/B00CFG33WE/ref=gb1h_img_c-2_6602_28543bcc?pf_rd_m=ATVPDKIKX0DER&pf_rd_t=701&pf_rd_s=center-new-2&pf_rd_r=09J4CR1TQVY6EQSV9M4P&pf_rd_i=20&pf_rd_p=1965626602
p1126
sVlightning_deals_timestamp_collected
p1127
VTue Nov 04 2014 17:04:03 GMT+0530 (IST)
p1128
ssV2
(dp1129
Vlightning_deals_product_price 
p1130
V
sVlightning_deals_product_deal_time
p1131
V Starts at 12:00 AM
p1132
sVlightning_deals_product_title
p1133
VLucien Piccard Men's 12011-RG-03 "Monte Viso" Stainless Stee
p1134
sVlightning_deals_product_percent_off
p1135
V
sVlightning_deals_product_img 
p1136
Vhttp://ecx.images-amazon.com/images/I/51cyVr2Zh%2BL._AA135_.jpg
p1137
sVlightning_deals_dict_refrence_link 
p1138
V/gp/product/B00CFG346Y/ref=gb1h_img_c-2_6602_6d7bb3e1?pf_rd_m=ATVPDKIKX0DER&pf_rd_t=701&pf_rd_s=center-new-2&pf_rd_r=09J4CR1TQVY6EQSV9M4P&pf_rd_i=20&pf_rd_p=1965626602
p1139
sVlightning_deals_timestamp_collected
p1140
VTue Nov 04 2014 17:04:03 GMT+0530 (IST)
p1141
ssV5
(dp1142
Vlightning_deals_product_price 
p1143
V
sVlightning_deals_product_deal_time
p1144
V Starts at 12:00 AM
p1145
sVlightning_deals_product_title
p1146
VMarc New York Nathan Leather Jacket
p1147
sVlightning_deals_product_percent_off
p1148
V
sVlightning_deals_product_img 
p1149
Vhttp://ecx.images-amazon.com/images/I/41ZjnU7ctfL._AA135_.jpg
p1150
sVlightning_deals_dict_refrence_link 
p1151
V/gp/product/B00BTZM1YI/ref=gb1h_img_c-2_6602_838f0da9?pf_rd_m=ATVPDKIKX0DER&pf_rd_t=701&pf_rd_s=center-new-2&pf_rd_r=09J4CR1TQVY6EQSV9M4P&pf_rd_i=20&pf_rd_p=1965626602
p1152
sVlightning_deals_timestamp_collected
p1153
VTue Nov 04 2014 17:04:03 GMT+0530 (IST)
p1154
ssV4
(dp1155
Vlightning_deals_product_price 
p1156
V
sVlightning_deals_product_deal_time
p1157
V Starts at 12:00 AM
p1158
sVlightning_deals_product_title
p1159
VVia Spiga Women's Chic Collarless Wool Coat with Zip Front Closure
p1160
sVlightning_deals_product_percent_off
p1161
V
sVlightning_deals_product_img 
p1162
Vhttp://ecx.images-amazon.com/images/I/31G1fGtZggL._AA135_.jpg
p1163
sVlightning_deals_dict_refrence_link 
p1164
V/gp/product/B00LGOH4NA/ref=gb1h_img_c-2_6602_514a3588?pf_rd_m=ATVPDKIKX0DER&pf_rd_t=701&pf_rd_s=center-new-2&pf_rd_r=09J4CR1TQVY6EQSV9M4P&pf_rd_i=20&pf_rd_p=1965626602
p1165
sVlightning_deals_timestamp_collected
p1166
VTue Nov 04 2014 17:04:03 GMT+0530 (IST)
p1167
ssV6
(dp1168
Vlightning_deals_product_price 
p1169
V
sVlightning_deals_product_deal_time
p1170
V Starts at 12:00 AM
p1171
sVlightning_deals_product_title
p1172
VBaume and Mercier Capeland Grey Dial Chronograph Mens Watch
p1173
sVlightning_deals_product_percent_off
p1174
V
sVlightning_deals_product_img 
p1175
Vhttp://ecx.images-amazon.com/images/I/51fkWBCLLvL._AA135_.jpg
p1176
sVlightning_deals_dict_refrence_link 
p1177
V/gp/product/B00K2ZNVUE/ref=gb1h_img_c-2_6602_a6a0b8ab?pf_rd_m=ATVPDKIKX0DER&pf_rd_t=701&pf_rd_s=center-new-2&pf_rd_r=09J4CR1TQVY6EQSV9M4P&pf_rd_i=20&pf_rd_p=1965626602
p1178
sVlightning_deals_timestamp_collected
p1179
VTue Nov 04 2014 17:04:03 GMT+0530 (IST)
p1180
sssV10
p1181
(dp1182
V1
(dp1183
Vlightning_deals_product_price 
p1184
V
sVlightning_deals_product_deal_time
p1185
V Starts for you at 12:00 AM
p1186
sVlightning_deals_product_title
p1187
VTake an Additional 68% Off ONE90ONE Men's "Arbie" Striped Pullover Sweater
p1188
sVlightning_deals_product_percent_off
p1189
V
sVlightning_deals_product_img 
p1190
Vhttp://ecx.images-amazon.com/images/I/41vopgo68NL._AA135_.jpg
p1191
sVlightning_deals_dict_refrence_link 
p1192
V/gp/product/B00H7KFZTM/ref=gb1h_img_c-2_6602_4cad7823?pf_rd_m=ATVPDKIKX0DER&pf_rd_t=701&pf_rd_s=center-new-2&pf_rd_r=09J4CR1TQVY6EQSV9M4P&pf_rd_i=20&pf_rd_p=1965626602
p1193
sVlightning_deals_timestamp_collected
p1194
VTue Nov 04 2014 17:04:02 GMT+0530 (IST)
p1195
ssV0
(dp1196
Vlightning_deals_product_price 
p1197
V
sVlightning_deals_product_deal_time
p1198
V Starts at 11:30 PM
p1199
sVlightning_deals_product_title
p1200
VTake an Additional 20% Off Luciano Natazzi Classic Fit Mock Neck Button Sweater
p1201
sVlightning_deals_product_percent_off
p1202
V
sVlightning_deals_product_img 
p1203
Vhttp://ecx.images-amazon.com/images/I/41zT-t6NTCL._AA135_.jpg
p1204
sVlightning_deals_dict_refrence_link 
p1205
V/gp/product/B00BRM4QM8/ref=gb1h_img_c-2_6602_b316d4c6?pf_rd_m=ATVPDKIKX0DER&pf_rd_t=701&pf_rd_s=center-new-2&pf_rd_r=09J4CR1TQVY6EQSV9M4P&pf_rd_i=20&pf_rd_p=1965626602
p1206
sVlightning_deals_timestamp_collected
p1207
VTue Nov 04 2014 17:04:02 GMT+0530 (IST)
p1208
ssV3
(dp1209
Vlightning_deals_product_price 
p1210
V
sVlightning_deals_product_deal_time
p1211
V Starts for you at 12:00 AM
p1212
sVlightning_deals_product_title
p1213
VNew and Essential Spiralizer Tri-Blade Spiral Vegetable Slicer (Green)
p1214
sVlightning_deals_product_percent_off
p1215
V
sVlightning_deals_product_img 
p1216
Vhttp://ecx.images-amazon.com/images/I/51jSABYrO-L._AA135_.jpg
p1217
sVlightning_deals_dict_refrence_link 
p1218
Vhttp://www.amazon.com/gp/product/B00L9EBP14/ref=gb1h_img_c-2_6602_9449dd12?pf_rd_m=ATVPDKIKX0DER&pf_rd_t=701&pf_rd_s=center-new-2&pf_rd_r=09J4CR1TQVY6EQSV9M4P&pf_rd_i=20&pf_rd_p=1965626602
p1219
sVlightning_deals_timestamp_collected
p1220
VTue Nov 04 2014 17:04:02 GMT+0530 (IST)
p1221
ssV2
(dp1222
Vlightning_deals_product_price 
p1223
V
sVlightning_deals_product_deal_time
p1224
V Starts for you at 12:00 AM
p1225
sVlightning_deals_product_title
p1226
VMelissa & Doug Elephant Plush
p1227
sVlightning_deals_product_percent_off
p1228
V
sVlightning_deals_product_img 
p1229
Vhttp://ecx.images-amazon.com/images/I/41GIfJzejoL._AA135_.jpg
p1230
sVlightning_deals_dict_refrence_link 
p1231
V/gp/product/B000NV6D16/ref=gb1h_img_c-2_6602_5435edcb?pf_rd_m=ATVPDKIKX0DER&pf_rd_t=701&pf_rd_s=center-new-2&pf_rd_r=09J4CR1TQVY6EQSV9M4P&pf_rd_i=20&pf_rd_p=1965626602
p1232
sVlightning_deals_timestamp_collected
p1233
VTue Nov 04 2014 17:04:02 GMT+0530 (IST)
p1234
ssV5
(dp1235
Vlightning_deals_product_price 
p1236
V
sVlightning_deals_product_deal_time
p1237
V Starts at 11:30 PM
p1238
sVlightning_deals_product_title
p1239
VVery Volatile Sampson Women's Desert Boots Suede
p1240
sVlightning_deals_product_percent_off
p1241
V
sVlightning_deals_product_img 
p1242
Vhttp://ecx.images-amazon.com/images/I/41iCFA1MCDL._AA135_.jpg
p1243
sVlightning_deals_dict_refrence_link 
p1244
V/gp/product/B00N276BUG/ref=gb1h_img_c-2_6602_aab661fb?pf_rd_m=ATVPDKIKX0DER&pf_rd_t=701&pf_rd_s=center-new-2&pf_rd_r=09J4CR1TQVY6EQSV9M4P&pf_rd_i=20&pf_rd_p=1965626602
p1245
sVlightning_deals_timestamp_collected
p1246
VTue Nov 04 2014 17:04:02 GMT+0530 (IST)
p1247
ssV4
(dp1248
Vlightning_deals_product_price 
p1249
V
sVlightning_deals_product_deal_time
p1250
V Starts at 11:30 PM
p1251
sVlightning_deals_product_title
p1252
VTake an Additional 20% on Gary Majdell Sport Men's Smooth-Finish Leather Belt with Polished Buckle
p1253
sVlightning_deals_product_percent_off
p1254
V
sVlightning_deals_product_img 
p1255
Vhttp://ecx.images-amazon.com/images/I/41W%2B%2BEjUJhL._AA135_.jpg
p1256
sVlightning_deals_dict_refrence_link 
p1257
V/gp/product/B00OJDDC8Q/ref=gb1h_img_c-2_6602_08d0ad41?pf_rd_m=ATVPDKIKX0DER&pf_rd_t=701&pf_rd_s=center-new-2&pf_rd_r=09J4CR1TQVY6EQSV9M4P&pf_rd_i=20&pf_rd_p=1965626602
p1258
sVlightning_deals_timestamp_collected
p1259
VTue Nov 04 2014 17:04:02 GMT+0530 (IST)
p1260
ssV6
(dp1261
Vlightning_deals_product_price 
p1262
V
sVlightning_deals_product_deal_time
p1263
V Starts at 11:30 PM
p1264
sVlightning_deals_product_title
p1265
VTake an Additional 25% Off ETO Jeans Men's Tan Cuffed Jogger Jeans
p1266
sVlightning_deals_product_percent_off
p1267
V
sVlightning_deals_product_img 
p1268
Vhttp://ecx.images-amazon.com/images/I/4112DojSbJL._AA135_.jpg
p1269
sVlightning_deals_dict_refrence_link 
p1270
V/gp/product/B00KQHGJES/ref=gb1h_img_c-2_6602_3e6c2c38?pf_rd_m=ATVPDKIKX0DER&pf_rd_t=701&pf_rd_s=center-new-2&pf_rd_r=09J4CR1TQVY6EQSV9M4P&pf_rd_i=20&pf_rd_p=1965626602
p1271
sVlightning_deals_timestamp_collected
p1272
VTue Nov 04 2014 17:04:02 GMT+0530 (IST)
p1273
sssV13
p1274
(dp1275
V1
(dp1276
Vlightning_deals_product_price 
p1277
V
sVlightning_deals_product_deal_time
p1278
V Starts at 1:00 AM
p1279
sVlightning_deals_product_title
p1280
VSwatch SUOZ169 Year Of The Horse White Black Dial Silicone Unisex Watch NEW
p1281
sVlightning_deals_product_percent_off
p1282
V
sVlightning_deals_product_img 
p1283
Vhttp://ecx.images-amazon.com/images/I/41aU-6bMBAL._AA135_.jpg
p1284
sVlightning_deals_dict_refrence_link 
p1285
V/gp/product/B00H8KN51G/ref=gb1h_img_c-2_6602_0b7e0d8d?pf_rd_m=ATVPDKIKX0DER&pf_rd_t=701&pf_rd_s=center-new-2&pf_rd_r=09J4CR1TQVY6EQSV9M4P&pf_rd_i=20&pf_rd_p=1965626602
p1286
sVlightning_deals_timestamp_collected
p1287
VTue Nov 04 2014 17:04:04 GMT+0530 (IST)
p1288
ssV0
(dp1289
Vlightning_deals_product_price 
p1290
V
sVlightning_deals_product_deal_time
p1291
V Starts at 1:00 AM
p1292
sVlightning_deals_product_title
p1293
VStuhrling Original Men's 160C.33161 Apocalypse Triumphant Date Black
p1294
sVlightning_deals_product_percent_off
p1295
V
sVlightning_deals_product_img 
p1296
Vhttp://ecx.images-amazon.com/images/I/41DR8kLmbJL._AA135_.jpg
p1297
sVlightning_deals_dict_refrence_link 
p1298
V/gp/product/B00CD2WF38/ref=gb1h_img_c-2_6602_8be3ecfd?pf_rd_m=ATVPDKIKX0DER&pf_rd_t=701&pf_rd_s=center-new-2&pf_rd_r=09J4CR1TQVY6EQSV9M4P&pf_rd_i=20&pf_rd_p=1965626602
p1299
sVlightning_deals_timestamp_collected
p1300
VTue Nov 04 2014 17:04:04 GMT+0530 (IST)
p1301
ssV3
(dp1302
Vlightning_deals_product_price 
p1303
V
sVlightning_deals_product_deal_time
p1304
V Starts for you at 2:00 AM
p1305
sVlightning_deals_product_title
p1306
VPlugable USB 2.0 7-Port High Speed Hub with 15W Power Adapter
p1307
sVlightning_deals_product_percent_off
p1308
V
sVlightning_deals_product_img 
p1309
Vhttp://ecx.images-amazon.com/images/I/41mbO3Hv3GL._AA135_.jpg
p1310
sVlightning_deals_dict_refrence_link 
p1311
V/gp/product/B003Z4G3I6/ref=gb1h_img_c-2_6602_e4b0270c?pf_rd_m=ATVPDKIKX0DER&pf_rd_t=701&pf_rd_s=center-new-2&pf_rd_r=09J4CR1TQVY6EQSV9M4P&pf_rd_i=20&pf_rd_p=1965626602
p1312
sVlightning_deals_timestamp_collected
p1313
VTue Nov 04 2014 17:04:04 GMT+0530 (IST)
p1314
ssV2
(dp1315
Vlightning_deals_product_price 
p1316
V
sVlightning_deals_product_deal_time
p1317
V Starts at 1:00 AM
p1318
sVlightning_deals_product_title
p1319
VSector Men's Urban Overland Analog Stainless Steel Watch
p1320
sVlightning_deals_product_percent_off
p1321
V
sVlightning_deals_product_img 
p1322
Vhttp://ecx.images-amazon.com/images/I/51Bbg-a-j7L._AA135_.jpg
p1323
sVlightning_deals_dict_refrence_link 
p1324
V/gp/product/B0072V9GJQ/ref=gb1h_img_c-2_6602_83e1481d?pf_rd_m=ATVPDKIKX0DER&pf_rd_t=701&pf_rd_s=center-new-2&pf_rd_r=09J4CR1TQVY6EQSV9M4P&pf_rd_i=20&pf_rd_p=1965626602
p1325
sVlightning_deals_timestamp_collected
p1326
VTue Nov 04 2014 17:04:04 GMT+0530 (IST)
p1327
ssV5
(dp1328
Vlightning_deals_product_price 
p1329
V
sVlightning_deals_product_deal_time
p1330
V Starts at 1:30 AM
p1331
sVlightning_deals_product_title
p1332
VSweatBlock Antiperspirant - Clinical Strength - Reduce sweat up to 7-days per use
p1333
sVlightning_deals_product_percent_off
p1334
V
sVlightning_deals_product_img 
p1335
Vhttp://ecx.images-amazon.com/images/I/51fYintVs8L._AA135_.jpg
p1336
sVlightning_deals_dict_refrence_link 
p1337
V/gp/product/B002PQ8BQM/ref=gb1h_img_c-2_6602_dee59046?pf_rd_m=ATVPDKIKX0DER&pf_rd_t=701&pf_rd_s=center-new-2&pf_rd_r=09J4CR1TQVY6EQSV9M4P&pf_rd_i=20&pf_rd_p=1965626602
p1338
sVlightning_deals_timestamp_collected
p1339
VTue Nov 04 2014 17:04:04 GMT+0530 (IST)
p1340
ssV4
(dp1341
Vlightning_deals_product_price 
p1342
V
sVlightning_deals_product_deal_time
p1343
V Starts at 1:30 AM
p1344
sVlightning_deals_product_title
p1345
VSterling Silver 16 + 2" Extension Infinity Figure 8 Necklace
p1346
sVlightning_deals_product_percent_off
p1347
V
sVlightning_deals_product_img 
p1348
Vhttp://ecx.images-amazon.com/images/I/31BgMFv0rjL._AA135_.jpg
p1349
sVlightning_deals_dict_refrence_link 
p1350
V/gp/product/B008FOUAQ2/ref=gb1h_img_c-2_6602_bbfcc703?pf_rd_m=ATVPDKIKX0DER&pf_rd_t=701&pf_rd_s=center-new-2&pf_rd_r=09J4CR1TQVY6EQSV9M4P&pf_rd_i=20&pf_rd_p=1965626602
p1351
sVlightning_deals_timestamp_collected
p1352
VTue Nov 04 2014 17:04:04 GMT+0530 (IST)
p1353
ssV6
(dp1354
Vlightning_deals_product_price 
p1355
V
sVlightning_deals_product_deal_time
p1356
V Starts for you at 2:00 AM
p1357
sVlightning_deals_product_title
p1358
VRubbermaid Commercial Slim Jim 23-Gallon Recycling Container with Handles, Blue
p1359
sVlightning_deals_product_percent_off
p1360
V
sVlightning_deals_product_img 
p1361
Vhttp://ecx.images-amazon.com/images/I/619Ir-cZ60L._SL1500__AA135_.jpg
p1362
sVlightning_deals_dict_refrence_link 
p1363
V/gp/product/B001C92C36/ref=gb1h_img_c-2_6602_2fd8f7d1?pf_rd_m=ATVPDKIKX0DER&pf_rd_t=701&pf_rd_s=center-new-2&pf_rd_r=09J4CR1TQVY6EQSV9M4P&pf_rd_i=20&pf_rd_p=1965626602
p1364
sVlightning_deals_timestamp_collected
p1365
VTue Nov 04 2014 17:04:04 GMT+0530 (IST)
p1366
sssV12
p1367
(dp1368
V1
(dp1369
Vlightning_deals_product_price 
p1370
V
sVlightning_deals_product_deal_time
p1371
V Starts at 12:30 AM
p1372
sVlightning_deals_product_title
p1373
VCulina Premium Garlic Press 3 Interchangeable Blades
p1374
sVlightning_deals_product_percent_off
p1375
V
sVlightning_deals_product_img 
p1376
Vhttp://ecx.images-amazon.com/images/I/41izP6RuzzL._AA135_.jpg
p1377
sVlightning_deals_dict_refrence_link 
p1378
V/gp/product/B00MJ7QAEM/ref=gb1h_img_c-2_6602_9366f4ba?pf_rd_m=ATVPDKIKX0DER&pf_rd_t=701&pf_rd_s=center-new-2&pf_rd_r=09J4CR1TQVY6EQSV9M4P&pf_rd_i=20&pf_rd_p=1965626602
p1379
sVlightning_deals_timestamp_collected
p1380
VTue Nov 04 2014 17:04:03 GMT+0530 (IST)
p1381
ssV0
(dp1382
Vlightning_deals_product_price 
p1383
V
sVlightning_deals_product_deal_time
p1384
V Starts at 12:00 AM
p1385
sVlightning_deals_product_title
p1386
VMen's Masterpiece Squelette Tradition Mechanical Skeletonize
p1387
sVlightning_deals_product_percent_off
p1388
V
sVlightning_deals_product_img 
p1389
Vhttp://ecx.images-amazon.com/images/I/51-svHnWAjL._AA135_.jpg
p1390
sVlightning_deals_dict_refrence_link 
p1391
V/gp/product/B00K0WEEB4/ref=gb1h_img_c-2_6602_c277ab9b?pf_rd_m=ATVPDKIKX0DER&pf_rd_t=701&pf_rd_s=center-new-2&pf_rd_r=09J4CR1TQVY6EQSV9M4P&pf_rd_i=20&pf_rd_p=1965626602
p1392
sVlightning_deals_timestamp_collected
p1393
VTue Nov 04 2014 17:04:03 GMT+0530 (IST)
p1394
ssV3
(dp1395
Vlightning_deals_product_price 
p1396
V
sVlightning_deals_product_deal_time
p1397
V Starts at 12:30 AM
p1398
sVlightning_deals_product_title
p1399
VMelissa & Doug Jumbo Brown Teddy Bear
p1400
sVlightning_deals_product_percent_off
p1401
V
sVlightning_deals_product_img 
p1402
Vhttp://ecx.images-amazon.com/images/I/51W2EGBBMZL._AA135_.jpg
p1403
sVlightning_deals_dict_refrence_link 
p1404
V/gp/product/B0009JW3Q6/ref=gb1h_img_c-2_6602_91eb828d?pf_rd_m=ATVPDKIKX0DER&pf_rd_t=701&pf_rd_s=center-new-2&pf_rd_r=09J4CR1TQVY6EQSV9M4P&pf_rd_i=20&pf_rd_p=1965626602
p1405
sVlightning_deals_timestamp_collected
p1406
VTue Nov 04 2014 17:04:03 GMT+0530 (IST)
p1407
ssV2
(dp1408
Vlightning_deals_product_price 
p1409
V
sVlightning_deals_product_deal_time
p1410
V Starts for you at 1:00 AM
p1411
sVlightning_deals_product_title
p1412
VNew and Essential Spiralizer Tri-Blade Spiral Vegetable Slicer (Red)
p1413
sVlightning_deals_product_percent_off
p1414
V
sVlightning_deals_product_img 
p1415
Vhttp://ecx.images-amazon.com/images/I/51jSABYrO-L._AA135_.jpg
p1416
sVlightning_deals_dict_refrence_link 
p1417
Vhttp://www.amazon.com/gp/product/B00L9EBPVY/ref=gb1h_img_c-2_6602_7282a251?pf_rd_m=ATVPDKIKX0DER&pf_rd_t=701&pf_rd_s=center-new-2&pf_rd_r=09J4CR1TQVY6EQSV9M4P&pf_rd_i=20&pf_rd_p=1965626602
p1418
sVlightning_deals_timestamp_collected
p1419
VTue Nov 04 2014 17:04:03 GMT+0530 (IST)
p1420
ssV5
(dp1421
Vlightning_deals_product_price 
p1422
V
sVlightning_deals_product_deal_time
p1423
V Starts at 1:00 AM
p1424
sVlightning_deals_product_title
p1425
VBulova Women's 96R164 Round Diamond Bezel Watch
p1426
sVlightning_deals_product_percent_off
p1427
V
sVlightning_deals_product_img 
p1428
Vhttp://ecx.images-amazon.com/images/I/41r0xVBI8lL._AA135_.jpg
p1429
sVlightning_deals_dict_refrence_link 
p1430
V/gp/product/B0088BMRUY/ref=gb1h_img_c-2_6602_3cce6a00?pf_rd_m=ATVPDKIKX0DER&pf_rd_t=701&pf_rd_s=center-new-2&pf_rd_r=09J4CR1TQVY6EQSV9M4P&pf_rd_i=20&pf_rd_p=1965626602
p1431
sVlightning_deals_timestamp_collected
p1432
VTue Nov 04 2014 17:04:03 GMT+0530 (IST)
p1433
ssV4
(dp1434
Vlightning_deals_product_price 
p1435
V
sVlightning_deals_product_deal_time
p1436
V Starts at 12:30 AM
p1437
sVlightning_deals_product_title
p1438
VAlto Professional TS112W 12-Inch Active PA Loudspeaker with Wired and Bluetooth Connectivity
p1439
sVlightning_deals_product_percent_off
p1440
V
sVlightning_deals_product_img 
p1441
Vhttp://ecx.images-amazon.com/images/I/5162eDLyObL._AA135_.jpg
p1442
sVlightning_deals_dict_refrence_link 
p1443
V/gp/product/B0073SSR16/ref=gb1h_img_c-2_6602_4019fb5e?pf_rd_m=ATVPDKIKX0DER&pf_rd_t=701&pf_rd_s=center-new-2&pf_rd_r=09J4CR1TQVY6EQSV9M4P&pf_rd_i=20&pf_rd_p=1965626602
p1444
sVlightning_deals_timestamp_collected
p1445
VTue Nov 04 2014 17:04:03 GMT+0530 (IST)
p1446
ssV6
(dp1447
Vlightning_deals_product_price 
p1448
V
sVlightning_deals_product_deal_time
p1449
V Starts at 1:00 AM
p1450
sVlightning_deals_product_title
p1451
VAkribos XXIV Women's AKR485WT Allura White Ceramic Watch
p1452
sVlightning_deals_product_percent_off
p1453
V
sVlightning_deals_product_img 
p1454
Vhttp://ecx.images-amazon.com/images/I/41HZtWKlwfL._AA135_.jpg
p1455
sVlightning_deals_dict_refrence_link 
p1456
V/gp/product/B0051U2WQ4/ref=gb1h_img_c-2_6602_d28443f9?pf_rd_m=ATVPDKIKX0DER&pf_rd_t=701&pf_rd_s=center-new-2&pf_rd_r=09J4CR1TQVY6EQSV9M4P&pf_rd_i=20&pf_rd_p=1965626602
p1457
sVlightning_deals_timestamp_collected
p1458
VTue Nov 04 2014 17:04:03 GMT+0530 (IST)
p1459
sssV15
p1460
(dp1461
V1
(dp1462
Vlightning_deals_product_price 
p1463
V
sVlightning_deals_product_deal_time
p1464
V Starts at 1:30 AM
p1465
sVlightning_deals_product_title
p1466
VSkip Hop Duo Diaper Bag, Signature Red
p1467
sVlightning_deals_product_percent_off
p1468
V
sVlightning_deals_product_img 
p1469
Vhttp://ecx.images-amazon.com/images/I/51D2WnDhNnL._AA135_.jpg
p1470
sVlightning_deals_dict_refrence_link 
p1471
V/gp/product/B00J4J22WC/ref=gb1h_img_c-2_6602_bbb352e3?pf_rd_m=ATVPDKIKX0DER&pf_rd_t=701&pf_rd_s=center-new-2&pf_rd_r=09J4CR1TQVY6EQSV9M4P&pf_rd_i=20&pf_rd_p=1965626602
p1472
sVlightning_deals_timestamp_collected
p1473
VTue Nov 04 2014 17:04:04 GMT+0530 (IST)
p1474
ssV0
(dp1475
Vlightning_deals_product_price 
p1476
V
sVlightning_deals_product_deal_time
p1477
V Starts at 1:30 AM
p1478
sVlightning_deals_product_title
p1479
V1/3 CT Diamond Stud Earrings 14K Gold
p1480
sVlightning_deals_product_percent_off
p1481
V
sVlightning_deals_product_img 
p1482
Vhttp://ecx.images-amazon.com/images/I/41Bk9G5pjIL._AA135_.jpg
p1483
sVlightning_deals_dict_refrence_link 
p1484
V/gp/product/B0069J0P8I/ref=gb1h_img_c-2_6602_9eab6db4?pf_rd_m=ATVPDKIKX0DER&pf_rd_t=701&pf_rd_s=center-new-2&pf_rd_r=09J4CR1TQVY6EQSV9M4P&pf_rd_i=20&pf_rd_p=1965626602
p1485
sVlightning_deals_timestamp_collected
p1486
VTue Nov 04 2014 17:04:04 GMT+0530 (IST)
p1487
ssV3
(dp1488
Vlightning_deals_product_price 
p1489
V
sVlightning_deals_product_deal_time
p1490
V Starts at 1:30 AM
p1491
sVlightning_deals_product_title
p1492
V7-8mm White Freshwater Cultured Pearl Necklace - AAAA Qualit
p1493
sVlightning_deals_product_percent_off
p1494
V
sVlightning_deals_product_img 
p1495
Vhttp://ecx.images-amazon.com/images/I/319F3fmoW8L._AA135_.jpg
p1496
sVlightning_deals_dict_refrence_link 
p1497
V/gp/product/B005BIIOXQ/ref=gb1h_img_c-2_6602_d7ff3d13?pf_rd_m=ATVPDKIKX0DER&pf_rd_t=701&pf_rd_s=center-new-2&pf_rd_r=09J4CR1TQVY6EQSV9M4P&pf_rd_i=20&pf_rd_p=1965626602
p1498
sVlightning_deals_timestamp_collected
p1499
VTue Nov 04 2014 17:04:05 GMT+0530 (IST)
p1500
ssV2
(dp1501
Vlightning_deals_product_price 
p1502
V
sVlightning_deals_product_deal_time
p1503
V Starts for you at 2:00 AM
p1504
sVlightning_deals_product_title
p1505
VSkip Hop Chime Ball, Treetop Friends Owl
p1506
sVlightning_deals_product_percent_off
p1507
V
sVlightning_deals_product_img 
p1508
Vhttp://ecx.images-amazon.com/images/I/51l2bOGJRvL._AA135_.jpg
p1509
sVlightning_deals_dict_refrence_link 
p1510
V/gp/product/B00BGX62IE/ref=gb1h_img_c-2_6602_919aa8ba?pf_rd_m=ATVPDKIKX0DER&pf_rd_t=701&pf_rd_s=center-new-2&pf_rd_r=09J4CR1TQVY6EQSV9M4P&pf_rd_i=20&pf_rd_p=1965626602
p1511
sVlightning_deals_timestamp_collected
p1512
VTue Nov 04 2014 17:04:05 GMT+0530 (IST)
p1513
ssV5
(dp1514
Vlightning_deals_product_price 
p1515
V
sVlightning_deals_product_deal_time
p1516
V Starts at 1:30 AM
p1517
sVlightning_deals_product_title
p1518
V0.30 ct White & Brown Circle Diamond Pendant in Yellow Gold
p1519
sVlightning_deals_product_percent_off
p1520
V
sVlightning_deals_product_img 
p1521
Vhttp://ecx.images-amazon.com/images/I/41I6cx148EL._AA135_.jpg
p1522
sVlightning_deals_dict_refrence_link 
p1523
V/gp/product/B00KTNAPC6/ref=gb1h_img_c-2_6602_85d30020?pf_rd_m=ATVPDKIKX0DER&pf_rd_t=701&pf_rd_s=center-new-2&pf_rd_r=09J4CR1TQVY6EQSV9M4P&pf_rd_i=20&pf_rd_p=1965626602
p1524
sVlightning_deals_timestamp_collected
p1525
VTue Nov 04 2014 17:04:05 GMT+0530 (IST)
p1526
ssV4
(dp1527
Vlightning_deals_product_price 
p1528
V
sVlightning_deals_product_deal_time
p1529
V Starts at 1:30 AM
p1530
sVlightning_deals_product_title
p1531
VSummer Infant Connect Plus Internet Monitor System
p1532
sVlightning_deals_product_percent_off
p1533
V
sVlightning_deals_product_img 
p1534
Vhttp://ecx.images-amazon.com/images/I/41TzUJAg%2BiL._AA135_.jpg
p1535
sVlightning_deals_dict_refrence_link 
p1536
V/gp/product/B00DU6J47G/ref=gb1h_img_c-2_6602_ca588671?pf_rd_m=ATVPDKIKX0DER&pf_rd_t=701&pf_rd_s=center-new-2&pf_rd_r=09J4CR1TQVY6EQSV9M4P&pf_rd_i=20&pf_rd_p=1965626602
p1537
sVlightning_deals_timestamp_collected
p1538
VTue Nov 04 2014 17:04:05 GMT+0530 (IST)
p1539
ssV6
(dp1540
Vlightning_deals_product_price 
p1541
V
sVlightning_deals_product_deal_time
p1542
V Starts at 1:30 AM
p1543
sVlightning_deals_product_title
p1544
V1.00 CT 14K White Gold Blue & White Diamond Hoop Earrings
p1545
sVlightning_deals_product_percent_off
p1546
V
sVlightning_deals_product_img 
p1547
Vhttp://ecx.images-amazon.com/images/I/51WUfAfrgAL._AA135_.jpg
p1548
sVlightning_deals_dict_refrence_link 
p1549
V/gp/product/B00FFSP3D6/ref=gb1h_img_c-2_6602_979b02d7?pf_rd_m=ATVPDKIKX0DER&pf_rd_t=701&pf_rd_s=center-new-2&pf_rd_r=09J4CR1TQVY6EQSV9M4P&pf_rd_i=20&pf_rd_p=1965626602
p1550
sVlightning_deals_timestamp_collected
p1551
VTue Nov 04 2014 17:04:05 GMT+0530 (IST)
p1552
sssV14
p1553
(dp1554
V1
(dp1555
Vlightning_deals_product_price 
p1556
V
sVlightning_deals_product_deal_time
p1557
V Starts for you at 2:00 AM
p1558
sVlightning_deals_product_title
p1559
VStar K Heart Simulated Emerald Hanging Hook Earrings
p1560
sVlightning_deals_product_percent_off
p1561
V
sVlightning_deals_product_img 
p1562
Vhttp://ecx.images-amazon.com/images/I/4162dOrO-TL._AA135_.jpg
p1563
sVlightning_deals_dict_refrence_link 
p1564
V/gp/product/B00G9I447W/ref=gb1h_img_c-2_6602_cc13fb1b?pf_rd_m=ATVPDKIKX0DER&pf_rd_t=701&pf_rd_s=center-new-2&pf_rd_r=09J4CR1TQVY6EQSV9M4P&pf_rd_i=20&pf_rd_p=1965626602
p1565
sVlightning_deals_timestamp_collected
p1566
VTue Nov 04 2014 17:04:04 GMT+0530 (IST)
p1567
ssV0
(dp1568
Vlightning_deals_product_price 
p1569
V
sVlightning_deals_product_deal_time
p1570
V Starts at 1:30 AM
p1571
sVlightning_deals_product_title
p1572
VThree Stone Diamond Heart Pendant in Sterling Silver
p1573
sVlightning_deals_product_percent_off
p1574
V
sVlightning_deals_product_img 
p1575
Vhttp://ecx.images-amazon.com/images/I/31Bu%2Ba%2BsBUL._AA135_.jpg
p1576
sVlightning_deals_dict_refrence_link 
p1577
V/gp/product/B00B8Z280G/ref=gb1h_img_c-2_6602_a8d73eb5?pf_rd_m=ATVPDKIKX0DER&pf_rd_t=701&pf_rd_s=center-new-2&pf_rd_r=09J4CR1TQVY6EQSV9M4P&pf_rd_i=20&pf_rd_p=1965626602
p1578
sVlightning_deals_timestamp_collected
p1579
VTue Nov 04 2014 17:04:04 GMT+0530 (IST)
p1580
ssV3
(dp1581
Vlightning_deals_product_price 
p1582
V
sVlightning_deals_product_deal_time
p1583
V Starts at 1:30 AM
p1584
sVlightning_deals_product_title
p1585
V1/4ct Black Diamond Stud Earrings In Sterling Silver
p1586
sVlightning_deals_product_percent_off
p1587
V
sVlightning_deals_product_img 
p1588
Vhttp://ecx.images-amazon.com/images/I/31SR%2BfyOkhL._AA135_.jpg
p1589
sVlightning_deals_dict_refrence_link 
p1590
V/gp/product/B0093OTLGS/ref=gb1h_img_c-2_6602_dfb35d3c?pf_rd_m=ATVPDKIKX0DER&pf_rd_t=701&pf_rd_s=center-new-2&pf_rd_r=09J4CR1TQVY6EQSV9M4P&pf_rd_i=20&pf_rd_p=1965626602
p1591
sVlightning_deals_timestamp_collected
p1592
VTue Nov 04 2014 17:04:04 GMT+0530 (IST)
p1593
ssV2
(dp1594
Vlightning_deals_product_price 
p1595
V
sVlightning_deals_product_deal_time
p1596
V Starts for you at 2:00 AM
p1597
sVlightning_deals_product_title
p1598
VGund Soft and Shaggy Big Bird Doll
p1599
sVlightning_deals_product_percent_off
p1600
V
sVlightning_deals_product_img 
p1601
Vhttp://ecx.images-amazon.com/images/I/41GTnw-u2PL._AA135_.jpg
p1602
sVlightning_deals_dict_refrence_link 
p1603
V/gp/product/B0014XCS6Q/ref=gb1h_img_c-2_6602_c54c16f0?pf_rd_m=ATVPDKIKX0DER&pf_rd_t=701&pf_rd_s=center-new-2&pf_rd_r=09J4CR1TQVY6EQSV9M4P&pf_rd_i=20&pf_rd_p=1965626602
p1604
sVlightning_deals_timestamp_collected
p1605
VTue Nov 04 2014 17:04:04 GMT+0530 (IST)
p1606
ssV5
(dp1607
Vlightning_deals_product_price 
p1608
V
sVlightning_deals_product_deal_time
p1609
V Starts for you at 2:00 AM
p1610
sVlightning_deals_product_title
p1611
VSkip Hop Bandana Buddies Activity Toy, Puppy
p1612
sVlightning_deals_product_percent_off
p1613
V
sVlightning_deals_product_img 
p1614
Vhttp://ecx.images-amazon.com/images/I/51x0xmTm%2B4L._AA135_.jpg
p1615
sVlightning_deals_dict_refrence_link 
p1616
V/gp/product/B00LZKC20U/ref=gb1h_img_c-2_6602_82f07d9a?pf_rd_m=ATVPDKIKX0DER&pf_rd_t=701&pf_rd_s=center-new-2&pf_rd_r=09J4CR1TQVY6EQSV9M4P&pf_rd_i=20&pf_rd_p=1965626602
p1617
sVlightning_deals_timestamp_collected
p1618
VTue Nov 04 2014 17:04:04 GMT+0530 (IST)
p1619
ssV4
(dp1620
Vlightning_deals_product_price 
p1621
V
sVlightning_deals_product_deal_time
p1622
V Starts at 1:30 AM
p1623
sVlightning_deals_product_title
p1624
VSterling Silver Round Cubic Zirconia Tennis Bracelet 7.25"
p1625
sVlightning_deals_product_percent_off
p1626
V
sVlightning_deals_product_img 
p1627
Vhttp://ecx.images-amazon.com/images/I/41mW2kkpxIL._AA135_.jpg
p1628
sVlightning_deals_dict_refrence_link 
p1629
V/gp/product/B00IK3CEQC/ref=gb1h_img_c-2_6602_aa4d3d3f?pf_rd_m=ATVPDKIKX0DER&pf_rd_t=701&pf_rd_s=center-new-2&pf_rd_r=09J4CR1TQVY6EQSV9M4P&pf_rd_i=20&pf_rd_p=1965626602
p1630
sVlightning_deals_timestamp_collected
p1631
VTue Nov 04 2014 17:04:04 GMT+0530 (IST)
p1632
ssV6
(dp1633
Vlightning_deals_product_price 
p1634
V
sVlightning_deals_product_deal_time
p1635
V Starts at 1:30 AM
p1636
sVlightning_deals_product_title
p1637
V14k White Gold Engagement 2 Ring Set CZ Cubic Zirconia 2.0ct
p1638
sVlightning_deals_product_percent_off
p1639
V
sVlightning_deals_product_img 
p1640
Vhttp://ecx.images-amazon.com/images/I/51H7PKBss3L._AA135_.jpg
p1641
sVlightning_deals_dict_refrence_link 
p1642
V/gp/product/B005EW6H9C/ref=gb1h_img_c-2_6602_da2e25b8?pf_rd_m=ATVPDKIKX0DER&pf_rd_t=701&pf_rd_s=center-new-2&pf_rd_r=09J4CR1TQVY6EQSV9M4P&pf_rd_i=20&pf_rd_p=1965626602
p1643
sVlightning_deals_timestamp_collected
p1644
VTue Nov 04 2014 17:04:04 GMT+0530 (IST)
p1645
sssV17
p1646
(dp1647
V1
(dp1648
Vlightning_deals_product_price 
p1649
V
sVlightning_deals_product_deal_time
p1650
V Starts at 4:00 AM
p1651
sVlightning_deals_product_title
p1652
VHaggar Retro Knit Coat Front Shirt
p1653
sVlightning_deals_product_percent_off
p1654
V
sVlightning_deals_product_img 
p1655
Vhttp://ecx.images-amazon.com/images/I/41vMe7SUpML._AA135_.jpg
p1656
sVlightning_deals_dict_refrence_link 
p1657
V/gp/product/B00K7UWFNI/ref=gb1h_img_c-2_6602_32cea7e5?pf_rd_m=ATVPDKIKX0DER&pf_rd_t=701&pf_rd_s=center-new-2&pf_rd_r=09J4CR1TQVY6EQSV9M4P&pf_rd_i=20&pf_rd_p=1965626602
p1658
sVlightning_deals_timestamp_collected
p1659
VTue Nov 04 2014 17:04:05 GMT+0530 (IST)
p1660
ssV0
(dp1661
Vlightning_deals_product_price 
p1662
V
sVlightning_deals_product_deal_time
p1663
V Starts at 4:00 AM
p1664
sVlightning_deals_product_title
p1665
VBetsey Johnson Women's Two-Pack Leopard Net Tights
p1666
sVlightning_deals_product_percent_off
p1667
V
sVlightning_deals_product_img 
p1668
Vhttp://ecx.images-amazon.com/images/I/41ytDbmRKqL._AA135_.jpg
p1669
sVlightning_deals_dict_refrence_link 
p1670
V/gp/product/B00DJNS97G/ref=gb1h_img_c-2_6602_b8235b84?pf_rd_m=ATVPDKIKX0DER&pf_rd_t=701&pf_rd_s=center-new-2&pf_rd_r=09J4CR1TQVY6EQSV9M4P&pf_rd_i=20&pf_rd_p=1965626602
p1671
sVlightning_deals_timestamp_collected
p1672
VTue Nov 04 2014 17:04:05 GMT+0530 (IST)
p1673
ssV3
(dp1674
Vlightning_deals_product_price 
p1675
V
sVlightning_deals_product_deal_time
p1676
V Starts at 4:30 AM
p1677
sVlightning_deals_product_title
p1678
V925 Sterling Silver Love Coffee Cup Charm Bead
p1679
sVlightning_deals_product_percent_off
p1680
V
sVlightning_deals_product_img 
p1681
Vhttp://ecx.images-amazon.com/images/I/41vSuWmvQZL._AA135_.jpg
p1682
sVlightning_deals_dict_refrence_link 
p1683
V/gp/product/B007WSOOY6/ref=gb1h_img_c-2_6602_891de57d?pf_rd_m=ATVPDKIKX0DER&pf_rd_t=701&pf_rd_s=center-new-2&pf_rd_r=09J4CR1TQVY6EQSV9M4P&pf_rd_i=20&pf_rd_p=1965626602
p1684
sVlightning_deals_timestamp_collected
p1685
VTue Nov 04 2014 17:04:05 GMT+0530 (IST)
p1686
ssV2
(dp1687
Vlightning_deals_product_price 
p1688
V
sVlightning_deals_product_deal_time
p1689
V Starts at 4:00 AM
p1690
sVlightning_deals_product_title
p1691
VDesign History Women's Cashmere Zippered Pullover Sweater
p1692
sVlightning_deals_product_percent_off
p1693
V
sVlightning_deals_product_img 
p1694
Vhttp://ecx.images-amazon.com/images/I/41nFx-AVszL._AA135_.jpg
p1695
sVlightning_deals_dict_refrence_link 
p1696
V/gp/product/B00J5C1OHC/ref=gb1h_img_c-2_6602_00cfadaf?pf_rd_m=ATVPDKIKX0DER&pf_rd_t=701&pf_rd_s=center-new-2&pf_rd_r=09J4CR1TQVY6EQSV9M4P&pf_rd_i=20&pf_rd_p=1965626602
p1697
sVlightning_deals_timestamp_collected
p1698
VTue Nov 04 2014 17:04:05 GMT+0530 (IST)
p1699
ssV5
(dp1700
Vlightning_deals_product_price 
p1701
V
sVlightning_deals_product_deal_time
p1702
V Starts at 4:30 AM
p1703
sVlightning_deals_product_title
p1704
VPurple Crystal Obmre Pendant with Swarovski Elements
p1705
sVlightning_deals_product_percent_off
p1706
V
sVlightning_deals_product_img 
p1707
Vhttp://ecx.images-amazon.com/images/I/41at8Abn0bL._AA135_.jpg
p1708
sVlightning_deals_dict_refrence_link 
p1709
V/gp/product/B00O13H2RQ/ref=gb1h_img_c-2_6602_770171e0?pf_rd_m=ATVPDKIKX0DER&pf_rd_t=701&pf_rd_s=center-new-2&pf_rd_r=09J4CR1TQVY6EQSV9M4P&pf_rd_i=20&pf_rd_p=1965626602
p1710
sVlightning_deals_timestamp_collected
p1711
VTue Nov 04 2014 17:04:06 GMT+0530 (IST)
p1712
ssV4
(dp1713
Vlightning_deals_product_price 
p1714
V
sVlightning_deals_product_deal_time
p1715
V Starts for you at 5:00 AM
p1716
sVlightning_deals_product_title
p1717
VGund Philbin 18" Bear, Beige
p1718
sVlightning_deals_product_percent_off
p1719
V
sVlightning_deals_product_img 
p1720
Vhttp://ecx.images-amazon.com/images/I/41WofCgW2lL._AA135_.jpg
p1721
sVlightning_deals_dict_refrence_link 
p1722
V/gp/product/B0041Q3UME/ref=gb1h_img_c-2_6602_dca061fe?pf_rd_m=ATVPDKIKX0DER&pf_rd_t=701&pf_rd_s=center-new-2&pf_rd_r=09J4CR1TQVY6EQSV9M4P&pf_rd_i=20&pf_rd_p=1965626602
p1723
sVlightning_deals_timestamp_collected
p1724
VTue Nov 04 2014 17:04:05 GMT+0530 (IST)
p1725
ssV6
(dp1726
Vlightning_deals_product_price 
p1727
V
sVlightning_deals_product_deal_time
p1728
V Starts at 4:30 AM
p1729
sVlightning_deals_product_title
p1730
V1 CT Black Diamond Stud Earrings 14K Gold
p1731
sVlightning_deals_product_percent_off
p1732
V
sVlightning_deals_product_img 
p1733
Vhttp://ecx.images-amazon.com/images/I/411aQ7tAMuL._AA135_.jpg
p1734
sVlightning_deals_dict_refrence_link 
p1735
V/gp/product/B0069IWXXE/ref=gb1h_img_c-2_6602_263a38f7?pf_rd_m=ATVPDKIKX0DER&pf_rd_t=701&pf_rd_s=center-new-2&pf_rd_r=09J4CR1TQVY6EQSV9M4P&pf_rd_i=20&pf_rd_p=1965626602
p1736
sVlightning_deals_timestamp_collected
p1737
VTue Nov 04 2014 17:04:06 GMT+0530 (IST)
p1738
sssV16
p1739
(dp1740
V1
(dp1741
Vlightning_deals_product_price 
p1742
V
sVlightning_deals_product_deal_time
p1743
V Starts at 1:30 AM
p1744
sVlightning_deals_product_title
p1745
V1/2 ct Diamond Wedding/Anniversary Ring in 14K White Gold
p1746
sVlightning_deals_product_percent_off
p1747
V
sVlightning_deals_product_img 
p1748
Vhttp://ecx.images-amazon.com/images/I/410zUOBG8gL._AA135_.jpg
p1749
sVlightning_deals_dict_refrence_link 
p1750
V/gp/product/B005SD8WPO/ref=gb1h_img_c-2_6602_74b0b810?pf_rd_m=ATVPDKIKX0DER&pf_rd_t=701&pf_rd_s=center-new-2&pf_rd_r=09J4CR1TQVY6EQSV9M4P&pf_rd_i=20&pf_rd_p=1965626602
p1751
sVlightning_deals_timestamp_collected
p1752
VTue Nov 04 2014 17:04:05 GMT+0530 (IST)
p1753
ssV0
(dp1754
Vlightning_deals_product_price 
p1755
V
sVlightning_deals_product_deal_time
p1756
V Starts at 1:30 AM
p1757
sVlightning_deals_product_title
p1758
VClassic Poker Chip Set - Black Snakeskin Leatherette Case with 300 Chips & 2 Decks of Cards
p1759
sVlightning_deals_product_percent_off
p1760
V
sVlightning_deals_product_img 
p1761
Vhttp://ecx.images-amazon.com/images/I/41uqYq2-mwL._AA135_.jpg
p1762
sVlightning_deals_dict_refrence_link 
p1763
Vhttp://www.amazon.com/dp/B000JOPYVC/ref=gb1h_img_c-2_6602_c36fc8df?pf_rd_m=ATVPDKIKX0DER&pf_rd_t=701&pf_rd_s=center-new-2&pf_rd_r=09J4CR1TQVY6EQSV9M4P&pf_rd_i=20&pf_rd_p=1965626602
p1764
sVlightning_deals_timestamp_collected
p1765
VTue Nov 04 2014 17:04:05 GMT+0530 (IST)
p1766
ssV3
(dp1767
Vlightning_deals_product_price 
p1768
V
sVlightning_deals_product_deal_time
p1769
V Starts at 2:30 AM
p1770
sVlightning_deals_product_title
p1771
VTRYM II - The Rechargeable Modern Hair Clipper Kit - Ultra-sleek Hair, Body, Mustache, and Beard Tri
p1772
sVlightning_deals_product_percent_off
p1773
V
sVlightning_deals_product_img 
p1774
Vhttp://ecx.images-amazon.com/images/I/319SfTeAx8L._AA135_.jpg
p1775
sVlightning_deals_dict_refrence_link 
p1776
Vhttp://www.amazon.com/dp/B00FMB4864/ref=gb1h_img_c-2_6602_14416948?pf_rd_m=ATVPDKIKX0DER&pf_rd_t=701&pf_rd_s=center-new-2&pf_rd_r=09J4CR1TQVY6EQSV9M4P&pf_rd_i=20&pf_rd_p=1965626602
p1777
sVlightning_deals_timestamp_collected
p1778
VTue Nov 04 2014 17:04:05 GMT+0530 (IST)
p1779
ssV2
(dp1780
Vlightning_deals_product_price 
p1781
V
sVlightning_deals_product_deal_time
p1782
V Starts at 2:00 AM
p1783
sVlightning_deals_product_title
p1784
VInvicta Men's 17744 Specialty Analog Display Swiss Quartz Go
p1785
sVlightning_deals_product_percent_off
p1786
V
sVlightning_deals_product_img 
p1787
Vhttp://ecx.images-amazon.com/images/I/51jq9CX9ynL._AA135_.jpg
p1788
sVlightning_deals_dict_refrence_link 
p1789
V/gp/product/B00N0RCNJG/ref=gb1h_img_c-2_6602_ed4ecd6b?pf_rd_m=ATVPDKIKX0DER&pf_rd_t=701&pf_rd_s=center-new-2&pf_rd_r=09J4CR1TQVY6EQSV9M4P&pf_rd_i=20&pf_rd_p=1965626602
p1790
sVlightning_deals_timestamp_collected
p1791
VTue Nov 04 2014 17:04:05 GMT+0530 (IST)
p1792
ssV5
(dp1793
Vlightning_deals_product_price 
p1794
V
sVlightning_deals_product_deal_time
p1795
V Starts for you at 4:00 AM
p1796
sVlightning_deals_product_title
p1797
VGund Elmo Large - 20"
p1798
sVlightning_deals_product_percent_off
p1799
V
sVlightning_deals_product_img 
p1800
Vhttp://ecx.images-amazon.com/images/I/4133FYuFuXL._AA135_.jpg
p1801
sVlightning_deals_dict_refrence_link 
p1802
V/gp/product/B001ELR674/ref=gb1h_img_c-2_6602_4770c4d2?pf_rd_m=ATVPDKIKX0DER&pf_rd_t=701&pf_rd_s=center-new-2&pf_rd_r=09J4CR1TQVY6EQSV9M4P&pf_rd_i=20&pf_rd_p=1965626602
p1803
sVlightning_deals_timestamp_collected
p1804
VTue Nov 04 2014 17:04:05 GMT+0530 (IST)
p1805
ssV4
(dp1806
Vlightning_deals_product_price 
p1807
V
sVlightning_deals_product_deal_time
p1808
V Starts at 2:30 AM
p1809
sVlightning_deals_product_title
p1810
VGund Playset My First Tackle Box 7.5" Toy
p1811
sVlightning_deals_product_percent_off
p1812
V
sVlightning_deals_product_img 
p1813
Vhttp://ecx.images-amazon.com/images/I/41UCG9NrCPL._AA135_.jpg
p1814
sVlightning_deals_dict_refrence_link 
p1815
V/gp/product/B0070H14D8/ref=gb1h_img_c-2_6602_15d30391?pf_rd_m=ATVPDKIKX0DER&pf_rd_t=701&pf_rd_s=center-new-2&pf_rd_r=09J4CR1TQVY6EQSV9M4P&pf_rd_i=20&pf_rd_p=1965626602
p1816
sVlightning_deals_timestamp_collected
p1817
VTue Nov 04 2014 17:04:05 GMT+0530 (IST)
p1818
ssV6
(dp1819
Vlightning_deals_product_price 
p1820
V
sVlightning_deals_product_deal_time
p1821
V Starts at 3:30 AM
p1822
sVlightning_deals_product_title
p1823
VAetertek AT-216W Professional Rechargeable 600 Yard Remote Dog Training Shock Collar 7 Levels Adjust
p1824
sVlightning_deals_product_percent_off
p1825
V
sVlightning_deals_product_img 
p1826
Vhttp://ecx.images-amazon.com/images/I/41CSUxXwAPL._AA135_.jpg
p1827
sVlightning_deals_dict_refrence_link 
p1828
Vhttp://www.amazon.com/gp/product/B00IJ342HC/ref=gb1h_img_c-2_6602_e994420a?pf_rd_m=ATVPDKIKX0DER&pf_rd_t=701&pf_rd_s=center-new-2&pf_rd_r=09J4CR1TQVY6EQSV9M4P&pf_rd_i=20&pf_rd_p=1965626602
p1829
sVlightning_deals_timestamp_collected
p1830
VTue Nov 04 2014 17:04:05 GMT+0530 (IST)
p1831
sssV19
p1832
(dp1833
V1
(dp1834
Vlightning_deals_product_price 
p1835
V
sVlightning_deals_product_deal_time
p1836
V Starts for you at 6:00 AM
p1837
sVlightning_deals_product_title
p1838
VSkip Hop Zoo Packs Little Kid Backpacks, Dinosaur
p1839
sVlightning_deals_product_percent_off
p1840
V
sVlightning_deals_product_img 
p1841
Vhttp://ecx.images-amazon.com/images/I/41UfUtzo6BL._AA135_.jpg
p1842
sVlightning_deals_dict_refrence_link 
p1843
V/gp/product/B007R66AS6/ref=gb1h_img_c-2_6602_c27fc1c5?pf_rd_m=ATVPDKIKX0DER&pf_rd_t=701&pf_rd_s=center-new-2&pf_rd_r=09J4CR1TQVY6EQSV9M4P&pf_rd_i=20&pf_rd_p=1965626602
p1844
sVlightning_deals_timestamp_collected
p1845
VTue Nov 04 2014 17:04:06 GMT+0530 (IST)
p1846
ssV0
(dp1847
Vlightning_deals_product_price 
p1848
V
sVlightning_deals_product_deal_time
p1849
V Starts for you at 6:00 AM
p1850
sVlightning_deals_product_title
p1851
VGund Sesame Street Take Along Elmo 12" Plush
p1852
sVlightning_deals_product_percent_off
p1853
V
sVlightning_deals_product_img 
p1854
Vhttp://ecx.images-amazon.com/images/I/41JatJ9cu%2BL._AA135_.jpg
p1855
sVlightning_deals_dict_refrence_link 
p1856
V/gp/product/B0054KBV4U/ref=gb1h_img_c-2_6602_4b3d43d3?pf_rd_m=ATVPDKIKX0DER&pf_rd_t=701&pf_rd_s=center-new-2&pf_rd_r=09J4CR1TQVY6EQSV9M4P&pf_rd_i=20&pf_rd_p=1965626602
p1857
sVlightning_deals_timestamp_collected
p1858
VTue Nov 04 2014 17:04:06 GMT+0530 (IST)
p1859
ssV3
(dp1860
Vlightning_deals_product_price 
p1861
V
sVlightning_deals_product_deal_time
p1862
V Starts at 5:30 AM
p1863
sVlightning_deals_product_title
p1864
VUP! Plus 2 Desktop 3D Printer, White
p1865
sVlightning_deals_product_percent_off
p1866
V
sVlightning_deals_product_img 
p1867
Vhttp://ecx.images-amazon.com/images/I/412FE8stIfL._AA135_.jpg
p1868
sVlightning_deals_dict_refrence_link 
p1869
V/gp/product/B00E5OQEUC/ref=gb1h_img_c-2_6602_4f05f462?pf_rd_m=ATVPDKIKX0DER&pf_rd_t=701&pf_rd_s=center-new-2&pf_rd_r=09J4CR1TQVY6EQSV9M4P&pf_rd_i=20&pf_rd_p=1965626602
p1870
sVlightning_deals_timestamp_collected
p1871
VTue Nov 04 2014 17:04:06 GMT+0530 (IST)
p1872
ssV2
(dp1873
Vlightning_deals_product_price 
p1874
V
sVlightning_deals_product_deal_time
p1875
V Starts for you at 6:00 AM
p1876
sVlightning_deals_product_title
p1877
VSkip Hop Zoo Lunchies Insulated Lunch Bags, Cat
p1878
sVlightning_deals_product_percent_off
p1879
V
sVlightning_deals_product_img 
p1880
Vhttp://ecx.images-amazon.com/images/I/41OgISQIz4L._AA135_.jpg
p1881
sVlightning_deals_dict_refrence_link 
p1882
V/gp/product/B0088N4C8C/ref=gb1h_img_c-2_6602_155f6317?pf_rd_m=ATVPDKIKX0DER&pf_rd_t=701&pf_rd_s=center-new-2&pf_rd_r=09J4CR1TQVY6EQSV9M4P&pf_rd_i=20&pf_rd_p=1965626602
p1883
sVlightning_deals_timestamp_collected
p1884
VTue Nov 04 2014 17:04:06 GMT+0530 (IST)
p1885
ssV5
(dp1886
Vlightning_deals_product_price 
p1887
V
sVlightning_deals_product_deal_time
p1888
V Starts at 7:00 AM
p1889
sVlightning_deals_product_title
p1890
VInvicta Men's Subaqua Noma IV Chronograph White Dial Watch
p1891
sVlightning_deals_product_percent_off
p1892
V
sVlightning_deals_product_img 
p1893
Vhttp://ecx.images-amazon.com/images/I/51k9q4UTcjL._AA135_.jpg
p1894
sVlightning_deals_dict_refrence_link 
p1895
V/gp/product/B008U1GJAG/ref=gb1h_img_c-2_6602_afee902b?pf_rd_m=ATVPDKIKX0DER&pf_rd_t=701&pf_rd_s=center-new-2&pf_rd_r=09J4CR1TQVY6EQSV9M4P&pf_rd_i=20&pf_rd_p=1965626602
p1896
sVlightning_deals_timestamp_collected
p1897
VTue Nov 04 2014 17:04:06 GMT+0530 (IST)
p1898
ssV4
(dp1899
Vlightning_deals_product_price 
p1900
V
sVlightning_deals_product_deal_time
p1901
V Starts for you at 7:00 AM
p1902
sVlightning_deals_product_title
p1903
VGund Monkey "Mambo"
p1904
sVlightning_deals_product_percent_off
p1905
V
sVlightning_deals_product_img 
p1906
Vhttp://ecx.images-amazon.com/images/I/41Zj0DPZOwL._AA135_.jpg
p1907
sVlightning_deals_dict_refrence_link 
p1908
V/gp/product/B000935KN0/ref=gb1h_img_c-2_6602_e1831e25?pf_rd_m=ATVPDKIKX0DER&pf_rd_t=701&pf_rd_s=center-new-2&pf_rd_r=09J4CR1TQVY6EQSV9M4P&pf_rd_i=20&pf_rd_p=1965626602
p1909
sVlightning_deals_timestamp_collected
p1910
VTue Nov 04 2014 17:04:06 GMT+0530 (IST)
p1911
ssV6
(dp1912
Vlightning_deals_product_price 
p1913
V
sVlightning_deals_product_deal_time
p1914
V Starts at 7:30 AM
p1915
sVlightning_deals_product_title
p1916
VSterling Silver Double-Strand Infinity Figure 8 Bracelet
p1917
sVlightning_deals_product_percent_off
p1918
V
sVlightning_deals_product_img 
p1919
Vhttp://ecx.images-amazon.com/images/I/41v-Ovkp9%2BL._AA135_.jpg
p1920
sVlightning_deals_dict_refrence_link 
p1921
V/gp/product/B00ANQKZM4/ref=gb1h_img_c-2_6602_3a592abb?pf_rd_m=ATVPDKIKX0DER&pf_rd_t=701&pf_rd_s=center-new-2&pf_rd_r=09J4CR1TQVY6EQSV9M4P&pf_rd_i=20&pf_rd_p=1965626602
p1922
sVlightning_deals_timestamp_collected
p1923
VTue Nov 04 2014 17:04:06 GMT+0530 (IST)
p1924
sssV18
p1925
(dp1926
V1
(dp1927
Vlightning_deals_product_price 
p1928
V
sVlightning_deals_product_deal_time
p1929
V Starts at 4:30 AM
p1930
sVlightning_deals_product_title
p1931
VBlack And White Diamond Leaf Cocktail Ring
p1932
sVlightning_deals_product_percent_off
p1933
V
sVlightning_deals_product_img 
p1934
Vhttp://ecx.images-amazon.com/images/I/41BTIoUy3HL._AA135_.jpg
p1935
sVlightning_deals_dict_refrence_link 
p1936
V/gp/product/B00BFE3T7G/ref=gb1h_img_c-2_6602_e9a71309?pf_rd_m=ATVPDKIKX0DER&pf_rd_t=701&pf_rd_s=center-new-2&pf_rd_r=09J4CR1TQVY6EQSV9M4P&pf_rd_i=20&pf_rd_p=1965626602
p1937
sVlightning_deals_timestamp_collected
p1938
VTue Nov 04 2014 17:04:06 GMT+0530 (IST)
p1939
ssV0
(dp1940
Vlightning_deals_product_price 
p1941
V
sVlightning_deals_product_deal_time
p1942
V Starts for you at 5:00 AM
p1943
sVlightning_deals_product_title
p1944
VSwitch-It  Cushion  Simulated Blue-Topaz Ring 12 Birthstones
p1945
sVlightning_deals_product_percent_off
p1946
V
sVlightning_deals_product_img 
p1947
Vhttp://ecx.images-amazon.com/images/I/51rQWZ1TtcL._AA135_.jpg
p1948
sVlightning_deals_dict_refrence_link 
p1949
V/gp/product/B00JIUDZ3W/ref=gb1h_img_c-2_6602_2a115dbf?pf_rd_m=ATVPDKIKX0DER&pf_rd_t=701&pf_rd_s=center-new-2&pf_rd_r=09J4CR1TQVY6EQSV9M4P&pf_rd_i=20&pf_rd_p=1965626602
p1950
sVlightning_deals_timestamp_collected
p1951
VTue Nov 04 2014 17:04:06 GMT+0530 (IST)
p1952
ssV3
(dp1953
Vlightning_deals_product_price 
p1954
V
sVlightning_deals_product_deal_time
p1955
V Starts at 4:30 AM
p1956
sVlightning_deals_product_title
p1957
V0.42 ct White & Brown Diamond Stud Earrings (HI, I2-I3)
p1958
sVlightning_deals_product_percent_off
p1959
V
sVlightning_deals_product_img 
p1960
Vhttp://ecx.images-amazon.com/images/I/51YQW6a2pTL._AA135_.jpg
p1961
sVlightning_deals_dict_refrence_link 
p1962
V/gp/product/B00KTNBAYI/ref=gb1h_img_c-2_6602_7add0b64?pf_rd_m=ATVPDKIKX0DER&pf_rd_t=701&pf_rd_s=center-new-2&pf_rd_r=09J4CR1TQVY6EQSV9M4P&pf_rd_i=20&pf_rd_p=1965626602
p1963
sVlightning_deals_timestamp_collected
p1964
VTue Nov 04 2014 17:04:06 GMT+0530 (IST)
p1965
ssV2
(dp1966
Vlightning_deals_product_price 
p1967
V
sVlightning_deals_product_deal_time
p1968
V Starts at 4:30 AM
p1969
sVlightning_deals_product_title
p1970
V18mm Multicolor Baroque Shell Pearl Bracelet Silver CZ Clasp
p1971
sVlightning_deals_product_percent_off
p1972
V
sVlightning_deals_product_img 
p1973
Vhttp://ecx.images-amazon.com/images/I/412%2Bxh0%2BeyL._AA135_.jpg
p1974
sVlightning_deals_dict_refrence_link 
p1975
V/gp/product/B007V64VHE/ref=gb1h_img_c-2_6602_1d77f7fa?pf_rd_m=ATVPDKIKX0DER&pf_rd_t=701&pf_rd_s=center-new-2&pf_rd_r=09J4CR1TQVY6EQSV9M4P&pf_rd_i=20&pf_rd_p=1965626602
p1976
sVlightning_deals_timestamp_collected
p1977
VTue Nov 04 2014 17:04:06 GMT+0530 (IST)
p1978
ssV5
(dp1979
Vlightning_deals_product_price 
p1980
V
sVlightning_deals_product_deal_time
p1981
V Starts at 4:30 AM
p1982
sVlightning_deals_product_title
p1983
V6-Strand Silver Pearl & Shell Lariat Necklace
p1984
sVlightning_deals_product_percent_off
p1985
V
sVlightning_deals_product_img 
p1986
Vhttp://ecx.images-amazon.com/images/I/310sE9TupxL._AA135_.jpg
p1987
sVlightning_deals_dict_refrence_link 
p1988
V/gp/product/B003JIPNZW/ref=gb1h_img_c-2_6602_c6b9b65c?pf_rd_m=ATVPDKIKX0DER&pf_rd_t=701&pf_rd_s=center-new-2&pf_rd_r=09J4CR1TQVY6EQSV9M4P&pf_rd_i=20&pf_rd_p=1965626602
p1989
sVlightning_deals_timestamp_collected
p1990
VTue Nov 04 2014 17:04:06 GMT+0530 (IST)
p1991
ssV4
(dp1992
Vlightning_deals_product_price 
p1993
V
sVlightning_deals_product_deal_time
p1994
V Starts at 4:30 AM
p1995
sVlightning_deals_product_title
p1996
V1/2 Carat IGI Certified Elegant Twisting Diamond Ring
p1997
sVlightning_deals_product_percent_off
p1998
V
sVlightning_deals_product_img 
p1999
Vhttp://ecx.images-amazon.com/images/I/417TNttayWL._AA135_.jpg
p2000
sVlightning_deals_dict_refrence_link 
p2001
V/gp/product/B00OYCLBT4/ref=gb1h_img_c-2_6602_f659100c?pf_rd_m=ATVPDKIKX0DER&pf_rd_t=701&pf_rd_s=center-new-2&pf_rd_r=09J4CR1TQVY6EQSV9M4P&pf_rd_i=20&pf_rd_p=1965626602
p2002
sVlightning_deals_timestamp_collected
p2003
VTue Nov 04 2014 17:04:06 GMT+0530 (IST)
p2004
ssV6
(dp2005
Vlightning_deals_product_price 
p2006
V
sVlightning_deals_product_deal_time
p2007
V Starts at 4:30 AM
p2008
sVlightning_deals_product_title
p2009
V14k Yellow Gold Ruby And Diamond Pendant with 18" Chain
p2010
sVlightning_deals_product_percent_off
p2011
V
sVlightning_deals_product_img 
p2012
Vhttp://ecx.images-amazon.com/images/I/41xQYsiCmxL._AA135_.jpg
p2013
sVlightning_deals_dict_refrence_link 
p2014
V/gp/product/B004N0OC0W/ref=gb1h_img_c-2_6602_9ad1b208?pf_rd_m=ATVPDKIKX0DER&pf_rd_t=701&pf_rd_s=center-new-2&pf_rd_r=09J4CR1TQVY6EQSV9M4P&pf_rd_i=20&pf_rd_p=1965626602
p2015
sVlightning_deals_timestamp_collected
p2016
VTue Nov 04 2014 17:04:06 GMT+0530 (IST)
p2017
sss.